ARM GAS  /tmp/cctrT0F4.s 			page 1


   1              		.cpu cortex-m4
   2              		.arch armv7e-m
   3              		.fpu fpv4-sp-d16
   4              		.eabi_attribute 27, 1
   5              		.eabi_attribute 28, 1
   6              		.eabi_attribute 20, 1
   7              		.eabi_attribute 21, 1
   8              		.eabi_attribute 23, 3
   9              		.eabi_attribute 24, 1
  10              		.eabi_attribute 25, 1
  11              		.eabi_attribute 26, 1
  12              		.eabi_attribute 30, 1
  13              		.eabi_attribute 34, 1
  14              		.eabi_attribute 18, 4
  15              		.file	"encoder.c"
  16              		.text
  17              	.Ltext0:
  18              		.cfi_sections	.debug_frame
  19              		.file 1 "MyHardWare/Src/encoder.c"
  20              		.section	.text.Encoder_GPIO_Init,"ax",%progbits
  21              		.align	1
  22              		.syntax unified
  23              		.thumb
  24              		.thumb_func
  26              	Encoder_GPIO_Init:
  27              	.LFB126:
   1:MyHardWare/Src/encoder.c **** 
   2:MyHardWare/Src/encoder.c **** //=============================================================================
   3:MyHardWare/Src/encoder.c **** // NOTE:
   4:MyHardWare/Src/encoder.c **** // 注意，encoder会自动解算speed,需要在头文件中确定采样周期ENCODER_SAMPLE_PERIO
   5:MyHardWare/Src/encoder.c **** //=============================================================================
   6:MyHardWare/Src/encoder.c **** 
   7:MyHardWare/Src/encoder.c **** /**
   8:MyHardWare/Src/encoder.c ****  *
   9:MyHardWare/Src/encoder.c ****  * @file encoder.c
  10:MyHardWare/Src/encoder.c ****  * @brief 编码器驱动实现文件 - 智能车专用（面向对象风格）
  11:MyHardWare/Src/encoder.c ****  * @version 2.0
  12:MyHardWare/Src/encoder.c ****  * @date 2026-03-04
  13:MyHardWare/Src/encoder.c ****  */
  14:MyHardWare/Src/encoder.c **** 
  15:MyHardWare/Src/encoder.c **** #include "encoder.h"
  16:MyHardWare/Src/encoder.c **** #include "stm32f4xx_gpio.h"
  17:MyHardWare/Src/encoder.c **** #include "stm32f4xx_rcc.h"
  18:MyHardWare/Src/encoder.c **** #include "stm32f4xx_tim.h"
  19:MyHardWare/Src/encoder.c **** #include <stdint.h>
  20:MyHardWare/Src/encoder.c **** #include <stdio.h>
  21:MyHardWare/Src/encoder.c **** static uint16_t debug_step = 0;
  22:MyHardWare/Src/encoder.c **** /* ==================== 全局编码器实例定义 ==================== */
  23:MyHardWare/Src/encoder.c **** // 四驱模式编码器实例
  24:MyHardWare/Src/encoder.c **** #ifdef QUAD_MOTOR_DRIVE
  25:MyHardWare/Src/encoder.c **** Encoder_Class_t Encoder_FR = {0};
  26:MyHardWare/Src/encoder.c **** Encoder_Class_t Encoder_FL = {0};
  27:MyHardWare/Src/encoder.c **** Encoder_Class_t Encoder_BR = {0};
  28:MyHardWare/Src/encoder.c **** Encoder_Class_t Encoder_BL = {0};
  29:MyHardWare/Src/encoder.c **** #else
  30:MyHardWare/Src/encoder.c **** // 双驱模式编码器实例
  31:MyHardWare/Src/encoder.c **** static Encoder_Class_t Encoder_Right = {
ARM GAS  /tmp/cctrT0F4.s 			page 2


  32:MyHardWare/Src/encoder.c ****     ._data = {.count = 0,
  33:MyHardWare/Src/encoder.c ****               .last_count = 0,
  34:MyHardWare/Src/encoder.c ****               .delta_count = 0,
  35:MyHardWare/Src/encoder.c ****               .speed_rpm = 0.0f,
  36:MyHardWare/Src/encoder.c ****               .speed_rps = 0.0f,
  37:MyHardWare/Src/encoder.c ****               .speed_rad_s = 0.0f,
  38:MyHardWare/Src/encoder.c ****               .speed_m_s = 0.0f,
  39:MyHardWare/Src/encoder.c ****               .total_count = 0,
  40:MyHardWare/Src/encoder.c ****               .total_distance = 0.0f,
  41:MyHardWare/Src/encoder.c ****               .direction = ENCODER_DIR_STOPPED,
  42:MyHardWare/Src/encoder.c ****               .wheel_diameter = WHEEL_DIAMETER,
  43:MyHardWare/Src/encoder.c ****               .gear_ratio = GEAR_RATIO,
  44:MyHardWare/Src/encoder.c ****               .last_update_time = 0},
  45:MyHardWare/Src/encoder.c ****     ._initialized = 0,
  46:MyHardWare/Src/encoder.c ****     .id = ENCODER_RIGHT,
  47:MyHardWare/Src/encoder.c ****     .tim = TIM5};
  48:MyHardWare/Src/encoder.c **** 
  49:MyHardWare/Src/encoder.c **** static Encoder_Class_t Encoder_Left = {
  50:MyHardWare/Src/encoder.c ****     ._data = {.count = 0,
  51:MyHardWare/Src/encoder.c ****               .last_count = 0,
  52:MyHardWare/Src/encoder.c ****               .delta_count = 0,
  53:MyHardWare/Src/encoder.c ****               .speed_rpm = 0.0f,
  54:MyHardWare/Src/encoder.c ****               .speed_rps = 0.0f,
  55:MyHardWare/Src/encoder.c ****               .speed_rad_s = 0.0f,
  56:MyHardWare/Src/encoder.c ****               .speed_m_s = 0.0f,
  57:MyHardWare/Src/encoder.c ****               .total_count = 0,
  58:MyHardWare/Src/encoder.c ****               .total_distance = 0.0f,
  59:MyHardWare/Src/encoder.c ****               .direction = ENCODER_DIR_STOPPED,
  60:MyHardWare/Src/encoder.c ****               .wheel_diameter = WHEEL_DIAMETER,
  61:MyHardWare/Src/encoder.c ****               .gear_ratio = GEAR_RATIO,
  62:MyHardWare/Src/encoder.c ****               .last_update_time = 0},
  63:MyHardWare/Src/encoder.c ****     ._initialized = 0,
  64:MyHardWare/Src/encoder.c ****     .id = ENCODER_LEFT,
  65:MyHardWare/Src/encoder.c ****     .tim = TIM2}; // 修改为 TIM2
  66:MyHardWare/Src/encoder.c **** #endif
  67:MyHardWare/Src/encoder.c **** 
  68:MyHardWare/Src/encoder.c **** /* ==================== 私有函数：硬件初始化 ==================== */
  69:MyHardWare/Src/encoder.c **** 
  70:MyHardWare/Src/encoder.c **** static void Encoder_GPIO_Init(void);
  71:MyHardWare/Src/encoder.c **** static void Encoder_TIM_Init(void);
  72:MyHardWare/Src/encoder.c **** /**
  73:MyHardWare/Src/encoder.c ****  * @brief 初始化单个编码器的GPIO引脚
  74:MyHardWare/Src/encoder.c ****  * @param encoder 编码器ID
  75:MyHardWare/Src/encoder.c ****  */
  76:MyHardWare/Src/encoder.c **** static void Encoder_GPIO_Init(void) {
  28              		.loc 1 76 37 view -0
  29              		.cfi_startproc
  30              		@ args = 0, pretend = 0, frame = 8
  31              		@ frame_needed = 0, uses_anonymous_args = 0
  32 0000 2DE9F041 		push	{r4, r5, r6, r7, r8, lr}
  33              	.LCFI0:
  34              		.cfi_def_cfa_offset 24
  35              		.cfi_offset 4, -24
  36              		.cfi_offset 5, -20
  37              		.cfi_offset 6, -16
  38              		.cfi_offset 7, -12
  39              		.cfi_offset 8, -8
ARM GAS  /tmp/cctrT0F4.s 			page 3


  40              		.cfi_offset 14, -4
  41 0004 82B0     		sub	sp, sp, #8
  42              	.LCFI1:
  43              		.cfi_def_cfa_offset 32
  77:MyHardWare/Src/encoder.c ****   GPIO_InitTypeDef GPIO_InitStructure;
  44              		.loc 1 77 3 view .LVU1
  78:MyHardWare/Src/encoder.c **** 
  79:MyHardWare/Src/encoder.c **** #ifdef QUAD_MOTOR_DRIVE
  80:MyHardWare/Src/encoder.c ****   // 四驱模式：直接初始化所有 4 个编码器的 GPIO
  81:MyHardWare/Src/encoder.c ****   // 前右编码器 (TIM2)
  82:MyHardWare/Src/encoder.c ****   RCC_AHB1PeriphClockCmd(ENCODER_FR_GPIO_CLK, ENABLE);
  83:MyHardWare/Src/encoder.c ****   GPIO_InitStructure.GPIO_Pin = ENCODER_FR_CH1_PIN | ENCODER_FR_CH2_PIN;
  84:MyHardWare/Src/encoder.c ****   GPIO_InitStructure.GPIO_Mode = GPIO_Mode_AF;
  85:MyHardWare/Src/encoder.c ****   GPIO_InitStructure.GPIO_Speed = GPIO_Speed_100MHz;
  86:MyHardWare/Src/encoder.c ****   GPIO_InitStructure.GPIO_OType = GPIO_OType_PP;
  87:MyHardWare/Src/encoder.c ****   GPIO_InitStructure.GPIO_PuPd = GPIO_PuPd_UP;
  88:MyHardWare/Src/encoder.c ****   GPIO_Init(ENCODER_FR_CH1_PORT, &GPIO_InitStructure);
  89:MyHardWare/Src/encoder.c ****   GPIO_Init(ENCODER_FR_CH2_PORT, &GPIO_InitStructure);
  90:MyHardWare/Src/encoder.c ****   GPIO_PinAFConfig(ENCODER_FR_CH1_PORT, GPIO_PinSource15, ENCODER_FR_AF);
  91:MyHardWare/Src/encoder.c ****   GPIO_PinAFConfig(ENCODER_FR_CH2_PORT, GPIO_PinSource3, ENCODER_FR_AF);
  92:MyHardWare/Src/encoder.c **** 
  93:MyHardWare/Src/encoder.c ****   // 前左编码器
  94:MyHardWare/Src/encoder.c ****   RCC_AHB1PeriphClockCmd(ENCODER_FL_GPIO_CLK, ENABLE);
  95:MyHardWare/Src/encoder.c ****   GPIO_InitStructure.GPIO_Pin = ENCODER_FL_CH1_PIN | ENCODER_FL_CH2_PIN;
  96:MyHardWare/Src/encoder.c ****   GPIO_Init(ENCODER_FL_CH1_PORT, &GPIO_InitStructure);
  97:MyHardWare/Src/encoder.c ****   GPIO_Init(ENCODER_FL_CH2_PORT, &GPIO_InitStructure);
  98:MyHardWare/Src/encoder.c ****   GPIO_PinAFConfig(ENCODER_FL_CH1_PORT, GPIO_PinSource6, ENCODER_FL_AF);
  99:MyHardWare/Src/encoder.c ****   GPIO_PinAFConfig(ENCODER_FL_CH2_PORT, GPIO_PinSource7, ENCODER_FL_AF);
 100:MyHardWare/Src/encoder.c **** 
 101:MyHardWare/Src/encoder.c ****   // 后右编码器
 102:MyHardWare/Src/encoder.c ****   RCC_AHB1PeriphClockCmd(ENCODER_BR_GPIO_CLK, ENABLE);
 103:MyHardWare/Src/encoder.c ****   GPIO_InitStructure.GPIO_Pin = ENCODER_BR_CH1_PIN | ENCODER_BR_CH2_PIN;
 104:MyHardWare/Src/encoder.c ****   GPIO_Init(ENCODER_BR_CH1_PORT, &GPIO_InitStructure);
 105:MyHardWare/Src/encoder.c ****   GPIO_Init(ENCODER_BR_CH2_PORT, &GPIO_InitStructure);
 106:MyHardWare/Src/encoder.c ****   GPIO_PinAFConfig(ENCODER_BR_CH1_PORT, GPIO_PinSource12, ENCODER_BR_AF);
 107:MyHardWare/Src/encoder.c ****   GPIO_PinAFConfig(ENCODER_BR_CH2_PORT, GPIO_PinSource13, ENCODER_BR_AF);
 108:MyHardWare/Src/encoder.c **** 
 109:MyHardWare/Src/encoder.c ****   // 后左编码器 (TIM5)
 110:MyHardWare/Src/encoder.c ****   RCC_AHB1PeriphClockCmd(ENCODER_BL_GPIO_CLK, ENABLE);
 111:MyHardWare/Src/encoder.c ****   GPIO_InitStructure.GPIO_Pin = ENCODER_BL_CH1_PIN | ENCODER_BL_CH2_PIN;
 112:MyHardWare/Src/encoder.c ****   GPIO_Init(ENCODER_BL_CH1_PORT, &GPIO_InitStructure);
 113:MyHardWare/Src/encoder.c ****   GPIO_Init(ENCODER_BL_CH2_PORT, &GPIO_InitStructure);
 114:MyHardWare/Src/encoder.c ****   GPIO_PinAFConfig(ENCODER_BL_CH1_PORT, GPIO_PinSource10, ENCODER_BL_AF);
 115:MyHardWare/Src/encoder.c ****   GPIO_PinAFConfig(ENCODER_BL_CH2_PORT, GPIO_PinSource11, ENCODER_BL_AF);
 116:MyHardWare/Src/encoder.c **** 
 117:MyHardWare/Src/encoder.c **** #else
 118:MyHardWare/Src/encoder.c ****   // 双驱模式：只初始化 2 个编码器的 GPIO
 119:MyHardWare/Src/encoder.c ****   // 右编码器 (TIM5)
 120:MyHardWare/Src/encoder.c ****   RCC_AHB1PeriphClockCmd(ENCODER_RIGHT_GPIO_CLK, ENABLE);
  45              		.loc 1 120 3 view .LVU2
  46 0006 0121     		movs	r1, #1
  47 0008 0846     		mov	r0, r1
  48 000a FFF7FEFF 		bl	RCC_AHB1PeriphClockCmd
  49              	.LVL0:
 121:MyHardWare/Src/encoder.c ****   GPIO_InitStructure.GPIO_Pin = ENCODER_RIGHT_CH1_PIN | ENCODER_RIGHT_CH2_PIN;
  50              		.loc 1 121 3 view .LVU3
  51              		.loc 1 121 31 is_stmt 0 view .LVU4
ARM GAS  /tmp/cctrT0F4.s 			page 4


  52 000e 0326     		movs	r6, #3
  53 0010 0096     		str	r6, [sp]
 122:MyHardWare/Src/encoder.c ****   GPIO_InitStructure.GPIO_Mode = GPIO_Mode_AF;
  54              		.loc 1 122 3 is_stmt 1 view .LVU5
  55              		.loc 1 122 32 is_stmt 0 view .LVU6
  56 0012 0227     		movs	r7, #2
  57 0014 8DF80470 		strb	r7, [sp, #4]
 123:MyHardWare/Src/encoder.c ****   GPIO_InitStructure.GPIO_Speed = GPIO_Speed_100MHz;
  58              		.loc 1 123 3 is_stmt 1 view .LVU7
  59              		.loc 1 123 33 is_stmt 0 view .LVU8
  60 0018 8DF80560 		strb	r6, [sp, #5]
 124:MyHardWare/Src/encoder.c ****   GPIO_InitStructure.GPIO_OType = GPIO_OType_PP;
  61              		.loc 1 124 3 is_stmt 1 view .LVU9
  62              		.loc 1 124 33 is_stmt 0 view .LVU10
  63 001c 4FF00008 		mov	r8, #0
  64 0020 8DF80680 		strb	r8, [sp, #6]
 125:MyHardWare/Src/encoder.c ****   GPIO_InitStructure.GPIO_PuPd = GPIO_PuPd_UP;
  65              		.loc 1 125 3 is_stmt 1 view .LVU11
  66              		.loc 1 125 32 is_stmt 0 view .LVU12
  67 0024 0125     		movs	r5, #1
  68 0026 8DF80750 		strb	r5, [sp, #7]
 126:MyHardWare/Src/encoder.c ****   GPIO_Init(ENCODER_RIGHT_CH1_PORT, &GPIO_InitStructure);
  69              		.loc 1 126 3 is_stmt 1 view .LVU13
  70 002a 174C     		ldr	r4, .L3
  71 002c 6946     		mov	r1, sp
  72 002e 2046     		mov	r0, r4
  73 0030 FFF7FEFF 		bl	GPIO_Init
  74              	.LVL1:
 127:MyHardWare/Src/encoder.c ****   GPIO_Init(ENCODER_RIGHT_CH2_PORT, &GPIO_InitStructure);
  75              		.loc 1 127 3 view .LVU14
  76 0034 6946     		mov	r1, sp
  77 0036 2046     		mov	r0, r4
  78 0038 FFF7FEFF 		bl	GPIO_Init
  79              	.LVL2:
 128:MyHardWare/Src/encoder.c ****   GPIO_PinAFConfig(ENCODER_RIGHT_CH1_PORT, GPIO_PinSource0, ENCODER_RIGHT_AF);
  80              		.loc 1 128 3 view .LVU15
  81 003c 3A46     		mov	r2, r7
  82 003e 4146     		mov	r1, r8
  83 0040 2046     		mov	r0, r4
  84 0042 FFF7FEFF 		bl	GPIO_PinAFConfig
  85              	.LVL3:
 129:MyHardWare/Src/encoder.c ****   GPIO_PinAFConfig(ENCODER_RIGHT_CH2_PORT, GPIO_PinSource1, ENCODER_RIGHT_AF);
  86              		.loc 1 129 3 view .LVU16
  87 0046 3A46     		mov	r2, r7
  88 0048 2946     		mov	r1, r5
  89 004a 2046     		mov	r0, r4
  90 004c FFF7FEFF 		bl	GPIO_PinAFConfig
  91              	.LVL4:
 130:MyHardWare/Src/encoder.c **** 
 131:MyHardWare/Src/encoder.c ****   // 左编码器 (TIM2)
 132:MyHardWare/Src/encoder.c ****   RCC_AHB1PeriphClockCmd(ENCODER_LEFT_GPIO_CLK, ENABLE);
  92              		.loc 1 132 3 view .LVU17
  93 0050 2946     		mov	r1, r5
  94 0052 3046     		mov	r0, r6
  95 0054 FFF7FEFF 		bl	RCC_AHB1PeriphClockCmd
  96              	.LVL5:
 133:MyHardWare/Src/encoder.c ****   GPIO_InitStructure.GPIO_Pin = ENCODER_LEFT_CH1_PIN | ENCODER_LEFT_CH2_PIN;
ARM GAS  /tmp/cctrT0F4.s 			page 5


  97              		.loc 1 133 3 view .LVU18
  98              		.loc 1 133 31 is_stmt 0 view .LVU19
  99 0058 2823     		movs	r3, #40
 100 005a 0093     		str	r3, [sp]
 134:MyHardWare/Src/encoder.c ****   GPIO_Init(ENCODER_LEFT_CH1_PORT, &GPIO_InitStructure);
 101              		.loc 1 134 3 is_stmt 1 view .LVU20
 102 005c 6946     		mov	r1, sp
 103 005e 2046     		mov	r0, r4
 104 0060 FFF7FEFF 		bl	GPIO_Init
 105              	.LVL6:
 135:MyHardWare/Src/encoder.c ****   GPIO_Init(ENCODER_LEFT_CH2_PORT, &GPIO_InitStructure);
 106              		.loc 1 135 3 view .LVU21
 107 0064 094F     		ldr	r7, .L3+4
 108 0066 6946     		mov	r1, sp
 109 0068 3846     		mov	r0, r7
 110 006a FFF7FEFF 		bl	GPIO_Init
 111              	.LVL7:
 136:MyHardWare/Src/encoder.c ****   GPIO_PinAFConfig(ENCODER_LEFT_CH1_PORT, GPIO_PinSource5, ENCODER_LEFT_AF);
 112              		.loc 1 136 3 view .LVU22
 113 006e 2A46     		mov	r2, r5
 114 0070 0521     		movs	r1, #5
 115 0072 2046     		mov	r0, r4
 116 0074 FFF7FEFF 		bl	GPIO_PinAFConfig
 117              	.LVL8:
 137:MyHardWare/Src/encoder.c ****   GPIO_PinAFConfig(ENCODER_LEFT_CH2_PORT, GPIO_PinSource3, ENCODER_LEFT_AF);
 118              		.loc 1 137 3 view .LVU23
 119 0078 2A46     		mov	r2, r5
 120 007a 3146     		mov	r1, r6
 121 007c 3846     		mov	r0, r7
 122 007e FFF7FEFF 		bl	GPIO_PinAFConfig
 123              	.LVL9:
 138:MyHardWare/Src/encoder.c **** 
 139:MyHardWare/Src/encoder.c **** #endif
 140:MyHardWare/Src/encoder.c **** }
 124              		.loc 1 140 1 is_stmt 0 view .LVU24
 125 0082 02B0     		add	sp, sp, #8
 126              	.LCFI2:
 127              		.cfi_def_cfa_offset 24
 128              		@ sp needed
 129 0084 BDE8F081 		pop	{r4, r5, r6, r7, r8, pc}
 130              	.L4:
 131              		.align	2
 132              	.L3:
 133 0088 00000240 		.word	1073872896
 134 008c 00040240 		.word	1073873920
 135              		.cfi_endproc
 136              	.LFE126:
 138              		.section	.text.Encoder_Update,"ax",%progbits
 139              		.align	1
 140              		.global	Encoder_Update
 141              		.syntax unified
 142              		.thumb
 143              		.thumb_func
 145              	Encoder_Update:
 146              	.LFB129:
 141:MyHardWare/Src/encoder.c **** 
 142:MyHardWare/Src/encoder.c **** /**
ARM GAS  /tmp/cctrT0F4.s 			page 6


 143:MyHardWare/Src/encoder.c ****  * @brief 编码器定时器初始化（根据硬件配置直接初始化）
 144:MyHardWare/Src/encoder.c ****  * @note  通过条件编译直接初始化对应的定时器，无需运行时判断
 145:MyHardWare/Src/encoder.c ****  */
 146:MyHardWare/Src/encoder.c **** static void Encoder_TIM_Init(void) {
 147:MyHardWare/Src/encoder.c **** #ifdef QUAD_MOTOR_DRIVE
 148:MyHardWare/Src/encoder.c ****   // 四驱模式：初始化 TIM2, TIM3, TIM4, TIM5
 149:MyHardWare/Src/encoder.c **** 
 150:MyHardWare/Src/encoder.c ****   // 使能定时器时钟
 151:MyHardWare/Src/encoder.c ****   RCC_APB1PeriphClockCmd(RCC_APB1Periph_TIM2 | RCC_APB1Periph_TIM3 |
 152:MyHardWare/Src/encoder.c ****                              RCC_APB1Periph_TIM4 | RCC_APB1Periph_TIM5,
 153:MyHardWare/Src/encoder.c ****                          ENABLE);
 154:MyHardWare/Src/encoder.c **** 
 155:MyHardWare/Src/encoder.c ****   // TIM2 配置 (前右编码器)
 156:MyHardWare/Src/encoder.c ****   TIM_TimeBaseInitTypeDef TIM_TimeBaseStructure;
 157:MyHardWare/Src/encoder.c ****   TIM_TimeBaseStructure.TIM_Period = 65535;
 158:MyHardWare/Src/encoder.c ****   TIM_TimeBaseStructure.TIM_Prescaler = 0;
 159:MyHardWare/Src/encoder.c ****   TIM_TimeBaseStructure.TIM_ClockDivision = 0;
 160:MyHardWare/Src/encoder.c ****   TIM_TimeBaseStructure.TIM_CounterMode = TIM_CounterMode_Up;
 161:MyHardWare/Src/encoder.c ****   TIM_TimeBaseInit(TIM2, &TIM_TimeBaseStructure);
 162:MyHardWare/Src/encoder.c **** 
 163:MyHardWare/Src/encoder.c ****   // 输入捕获初始化结构体
 164:MyHardWare/Src/encoder.c ****   TIM_ICInitTypeDef TIM_IC_InitStructure;
 165:MyHardWare/Src/encoder.c ****   TIM_IC_InitStructure.TIM_Channel = TIM_Channel_1;
 166:MyHardWare/Src/encoder.c ****   TIM_IC_InitStructure.TIM_ICPolarity = TIM_ICPolarity_Rising;
 167:MyHardWare/Src/encoder.c ****   TIM_IC_InitStructure.TIM_ICSelection = TIM_ICSC_DIRECT;
 168:MyHardWare/Src/encoder.c ****   TIM_IC_InitStructure.TIM_ICPrescaler = TIM_IC_PSC_DIV1;
 169:MyHardWare/Src/encoder.c ****   TIM_IC_InitStructure.TIM_ICFilter = 0x05; // 滤波器设置
 170:MyHardWare/Src/encoder.c ****   TIM_IC_Init(TIM2, &TIM_IC_InitStructure);
 171:MyHardWare/Src/encoder.c **** 
 172:MyHardWare/Src/encoder.c ****   TIM_IC_InitStructure.TIM_Channel = TIM_Channel_2;
 173:MyHardWare/Src/encoder.c ****   TIM_IC_Init(TIM2, &TIM_IC_InitStructure);
 174:MyHardWare/Src/encoder.c **** 
 175:MyHardWare/Src/encoder.c ****   // 配置编码器接口
 176:MyHardWare/Src/encoder.c ****   TIM_EncoderInterfaceConfig(TIM2, TIM_EncoderMode_TI12, TIM_ICPolarity_Rising,
 177:MyHardWare/Src/encoder.c ****                              TIM_ICPolarity_Rising);
 178:MyHardWare/Src/encoder.c ****   TIM_Cmd(TIM2, ENABLE);
 179:MyHardWare/Src/encoder.c **** 
 180:MyHardWare/Src/encoder.c ****   // TIM3 配置 (前左编码器)
 181:MyHardWare/Src/encoder.c ****   TIM_TimeBaseInit(TIM3, &TIM_TimeBaseStructure);
 182:MyHardWare/Src/encoder.c **** 
 183:MyHardWare/Src/encoder.c ****   TIM_IC_InitStructure.TIM_Channel = TIM_Channel_1;
 184:MyHardWare/Src/encoder.c ****   TIM_IC_Init(TIM3, &TIM_IC_InitStructure);
 185:MyHardWare/Src/encoder.c **** 
 186:MyHardWare/Src/encoder.c ****   TIM_IC_InitStructure.TIM_Channel = TIM_Channel_2;
 187:MyHardWare/Src/encoder.c ****   TIM_IC_Init(TIM3, &TIM_IC_InitStructure);
 188:MyHardWare/Src/encoder.c **** 
 189:MyHardWare/Src/encoder.c ****   TIM_EncoderInterfaceConfig(TIM3, TIM_EncoderMode_TI12, TIM_ICPolarity_Rising,
 190:MyHardWare/Src/encoder.c ****                              TIM_ICPolarity_Rising);
 191:MyHardWare/Src/encoder.c ****   TIM_Cmd(TIM3, ENABLE);
 192:MyHardWare/Src/encoder.c **** 
 193:MyHardWare/Src/encoder.c ****   // TIM4 配置 (后右编码器)
 194:MyHardWare/Src/encoder.c ****   TIM_TimeBaseInit(TIM4, &TIM_TimeBaseStructure);
 195:MyHardWare/Src/encoder.c **** 
 196:MyHardWare/Src/encoder.c ****   TIM_IC_InitStructure.TIM_Channel = TIM_Channel_1;
 197:MyHardWare/Src/encoder.c ****   TIM_IC_Init(TIM4, &TIM_IC_InitStructure);
 198:MyHardWare/Src/encoder.c **** 
 199:MyHardWare/Src/encoder.c ****   TIM_IC_InitStructure.TIM_Channel = TIM_Channel_2;
ARM GAS  /tmp/cctrT0F4.s 			page 7


 200:MyHardWare/Src/encoder.c ****   TIM_IC_Init(TIM4, &TIM_IC_InitStructure);
 201:MyHardWare/Src/encoder.c **** 
 202:MyHardWare/Src/encoder.c ****   TIM_EncoderInterfaceConfig(TIM4, TIM_EncoderMode_TI12, TIM_ICPolarity_Rising,
 203:MyHardWare/Src/encoder.c ****                              TIM_ICPolarity_Rising);
 204:MyHardWare/Src/encoder.c ****   TIM_Cmd(TIM4, ENABLE);
 205:MyHardWare/Src/encoder.c **** 
 206:MyHardWare/Src/encoder.c ****   // TIM5 配置 (后左编码器)
 207:MyHardWare/Src/encoder.c ****   TIM_TimeBaseInit(TIM5, &TIM_TimeBaseStructure);
 208:MyHardWare/Src/encoder.c **** 
 209:MyHardWare/Src/encoder.c ****   TIM_IC_InitStructure.TIM_Channel = TIM_Channel_1;
 210:MyHardWare/Src/encoder.c ****   TIM_IC_Init(TIM5, &TIM_IC_InitStructure);
 211:MyHardWare/Src/encoder.c **** 
 212:MyHardWare/Src/encoder.c ****   TIM_IC_InitStructure.TIM_Channel = TIM_Channel_2;
 213:MyHardWare/Src/encoder.c ****   TIM_IC_Init(TIM5, &TIM_IC_InitStructure);
 214:MyHardWare/Src/encoder.c **** 
 215:MyHardWare/Src/encoder.c ****   TIM_EncoderInterfaceConfig(TIM5, TIM_EncoderMode_TI12, TIM_ICPolarity_Rising,
 216:MyHardWare/Src/encoder.c ****                              TIM_ICPolarity_Rising);
 217:MyHardWare/Src/encoder.c ****   TIM_Cmd(TIM5, ENABLE);
 218:MyHardWare/Src/encoder.c **** 
 219:MyHardWare/Src/encoder.c **** #else
 220:MyHardWare/Src/encoder.c ****   // 双驱模式：只初始化 TIM2, TIM5
 221:MyHardWare/Src/encoder.c **** 
 222:MyHardWare/Src/encoder.c ****   // 使能定时器时钟
 223:MyHardWare/Src/encoder.c ****   RCC_APB1PeriphClockCmd(RCC_APB1Periph_TIM2 | RCC_APB1Periph_TIM5, ENABLE);
 224:MyHardWare/Src/encoder.c **** 
 225:MyHardWare/Src/encoder.c ****   // TIM2 配置 (右编码器)
 226:MyHardWare/Src/encoder.c ****   TIM_TimeBaseInitTypeDef TIM_TimeBaseStructure;
 227:MyHardWare/Src/encoder.c ****   TIM_TimeBaseStructure.TIM_Period =
 228:MyHardWare/Src/encoder.c ****       2000000; // 200万计数周期，适合高分辨率编码器
 229:MyHardWare/Src/encoder.c ****   TIM_TimeBaseStructure.TIM_Prescaler = 0;
 230:MyHardWare/Src/encoder.c ****   TIM_TimeBaseStructure.TIM_ClockDivision = 0;
 231:MyHardWare/Src/encoder.c ****   TIM_TimeBaseStructure.TIM_CounterMode = TIM_CounterMode_Up;
 232:MyHardWare/Src/encoder.c ****   TIM_TimeBaseInit(TIM2, &TIM_TimeBaseStructure);
 233:MyHardWare/Src/encoder.c **** 
 234:MyHardWare/Src/encoder.c ****   // 输入捕获初始化结构体
 235:MyHardWare/Src/encoder.c ****   TIM_ICInitTypeDef TIM_IC_InitStructure;
 236:MyHardWare/Src/encoder.c ****   TIM_IC_InitStructure.TIM_Channel = TIM_Channel_1;
 237:MyHardWare/Src/encoder.c ****   TIM_IC_InitStructure.TIM_ICPolarity = TIM_ICPolarity_Rising;
 238:MyHardWare/Src/encoder.c ****   TIM_IC_InitStructure.TIM_ICSelection = TIM_ICSelection_DirectTI;
 239:MyHardWare/Src/encoder.c ****   TIM_IC_InitStructure.TIM_ICPrescaler = TIM_ICPSC_DIV1;
 240:MyHardWare/Src/encoder.c ****   TIM_IC_InitStructure.TIM_ICFilter = 0x05; // 滤波器设置
 241:MyHardWare/Src/encoder.c ****   TIM_ICInit(TIM2, &TIM_IC_InitStructure);
 242:MyHardWare/Src/encoder.c **** 
 243:MyHardWare/Src/encoder.c ****   TIM_IC_InitStructure.TIM_Channel = TIM_Channel_2;
 244:MyHardWare/Src/encoder.c ****   TIM_ICInit(TIM2, &TIM_IC_InitStructure);
 245:MyHardWare/Src/encoder.c **** 
 246:MyHardWare/Src/encoder.c ****   // 配置编码器接口
 247:MyHardWare/Src/encoder.c ****   TIM_EncoderInterfaceConfig(TIM2, TIM_EncoderMode_TI1, TIM_ICPolarity_Rising,
 248:MyHardWare/Src/encoder.c ****                              TIM_ICPolarity_Rising);
 249:MyHardWare/Src/encoder.c ****   TIM_Cmd(TIM2, ENABLE);
 250:MyHardWare/Src/encoder.c **** 
 251:MyHardWare/Src/encoder.c ****   // TIM5 配置 (右编码器)
 252:MyHardWare/Src/encoder.c ****   TIM_TimeBaseInit(TIM5, &TIM_TimeBaseStructure);
 253:MyHardWare/Src/encoder.c **** 
 254:MyHardWare/Src/encoder.c ****   TIM_IC_InitStructure.TIM_Channel = TIM_Channel_1;
 255:MyHardWare/Src/encoder.c ****   TIM_ICInit(TIM5, &TIM_IC_InitStructure);
 256:MyHardWare/Src/encoder.c **** 
ARM GAS  /tmp/cctrT0F4.s 			page 8


 257:MyHardWare/Src/encoder.c ****   TIM_IC_InitStructure.TIM_Channel = TIM_Channel_2;
 258:MyHardWare/Src/encoder.c ****   TIM_ICInit(TIM5, &TIM_IC_InitStructure);
 259:MyHardWare/Src/encoder.c **** 
 260:MyHardWare/Src/encoder.c ****   TIM_EncoderInterfaceConfig(TIM5, TIM_EncoderMode_TI1, TIM_ICPolarity_Rising,
 261:MyHardWare/Src/encoder.c ****                              TIM_ICPolarity_Rising);
 262:MyHardWare/Src/encoder.c ****   TIM_Cmd(TIM5, ENABLE);
 263:MyHardWare/Src/encoder.c **** #endif
 264:MyHardWare/Src/encoder.c ****   Encoder_Update();
 265:MyHardWare/Src/encoder.c **** }
 266:MyHardWare/Src/encoder.c **** 
 267:MyHardWare/Src/encoder.c **** void Encoder_Driver_Init(void) {
 268:MyHardWare/Src/encoder.c ****   Encoder_GPIO_Init();
 269:MyHardWare/Src/encoder.c ****   Encoder_TIM_Init();
 270:MyHardWare/Src/encoder.c **** }
 271:MyHardWare/Src/encoder.c **** 
 272:MyHardWare/Src/encoder.c **** /**
 273:MyHardWare/Src/encoder.c ****  * @brief 更新所有编码器的数据
 274:MyHardWare/Src/encoder.c ****  * @note  根据QUAD_MOTOR_DRIVE宏定义自动适配四驱/双驱模式
 275:MyHardWare/Src/encoder.c ****  *        在10ms控制循环中调用，实现所有编码器数据同步更新
 276:MyHardWare/Src/encoder.c ****  */
 277:MyHardWare/Src/encoder.c **** void Encoder_Update(void) {
 147              		.loc 1 277 27 is_stmt 1 view -0
 148              		.cfi_startproc
 149              		@ args = 0, pretend = 0, frame = 16
 150              		@ frame_needed = 0, uses_anonymous_args = 0
 151 0000 30B5     		push	{r4, r5, lr}
 152              	.LCFI3:
 153              		.cfi_def_cfa_offset 12
 154              		.cfi_offset 4, -12
 155              		.cfi_offset 5, -8
 156              		.cfi_offset 14, -4
 157 0002 85B0     		sub	sp, sp, #20
 158              	.LCFI4:
 159              		.cfi_def_cfa_offset 32
 278:MyHardWare/Src/encoder.c ****   // 获取当前时间戳（用于计算时间间隔）
 279:MyHardWare/Src/encoder.c ****   float dt_seconds = ENCODER_SAMPLE_PERIOD_MS / 1000.0f; // 转换为秒
 160              		.loc 1 279 3 view .LVU26
 161              	.LVL10:
 280:MyHardWare/Src/encoder.c **** 
 281:MyHardWare/Src/encoder.c **** #ifdef QUAD_MOTOR_DRIVE
 282:MyHardWare/Src/encoder.c ****   // 四驱模式：处理 4 个编码器
 283:MyHardWare/Src/encoder.c ****   Encoder_Class_t *encoders[] = {&Encoder_FR, &Encoder_FL, &Encoder_BR,
 284:MyHardWare/Src/encoder.c ****                                  &Encoder_BL};
 285:MyHardWare/Src/encoder.c ****   for (int i = 0; i < 4; i++) {
 286:MyHardWare/Src/encoder.c ****     Encoder_Class_t *instance = encoders[i];
 287:MyHardWare/Src/encoder.c **** 
 288:MyHardWare/Src/encoder.c ****     // 读取当前计数值
 289:MyHardWare/Src/encoder.c ****     int32_t current_count = (int32_t)TIM_GetCounter(instance->tim);
 290:MyHardWare/Src/encoder.c **** 
 291:MyHardWare/Src/encoder.c ****     // 计算增量并处理计数器溢出/下溢
 292:MyHardWare/Src/encoder.c ****     int32_t delta = current_count - instance->_data.last_count;
 293:MyHardWare/Src/encoder.c **** 
 294:MyHardWare/Src/encoder.c ****     // 检测是否发生溢出或下溢（ARR=65535）
 295:MyHardWare/Src/encoder.c ****     if (delta > 32767) {
 296:MyHardWare/Src/encoder.c ****       // 计数器从 65535 回绕到 0，需要减去 65536
 297:MyHardWare/Src/encoder.c ****       delta -= 65536;
 298:MyHardWare/Src/encoder.c ****     } else if (delta < -32767) {
ARM GAS  /tmp/cctrT0F4.s 			page 9


 299:MyHardWare/Src/encoder.c ****       // 计数器从 0 回绕到 65535，需要加上 65536
 300:MyHardWare/Src/encoder.c ****       delta += 65536;
 301:MyHardWare/Src/encoder.c ****     }
 302:MyHardWare/Src/encoder.c **** 
 303:MyHardWare/Src/encoder.c ****     // 更新数据结构
 304:MyHardWare/Src/encoder.c ****     instance->_data.count = current_count;
 305:MyHardWare/Src/encoder.c ****     instance->_data.delta_count = delta;
 306:MyHardWare/Src/encoder.c ****     instance->_data.last_count = current_count;
 307:MyHardWare/Src/encoder.c ****     instance->_data.total_count += delta;
 308:MyHardWare/Src/encoder.c **** 
 309:MyHardWare/Src/encoder.c ****     // 计算速度
 310:MyHardWare/Src/encoder.c ****     instance->_data.speed_rps = (float)delta / (float)ENCODER_PPR / dt_seconds;
 311:MyHardWare/Src/encoder.c ****     instance->_data.speed_rpm = instance->_data.speed_rps / RPM_TO_RPS;
 312:MyHardWare/Src/encoder.c ****     instance->_data.speed_rad_s = instance->_data.speed_rps * 6.28318f;
 313:MyHardWare/Src/encoder.c ****     instance->_data.speed_m_s =
 314:MyHardWare/Src/encoder.c ****         instance->_data.speed_rad_s * (instance->_data.wheel_diameter / 2.0f);
 315:MyHardWare/Src/encoder.c **** 
 316:MyHardWare/Src/encoder.c ****     // 更新总里程
 317:MyHardWare/Src/encoder.c ****     instance->_data.total_distance += instance->_data.speed_m_s * dt_seconds;
 318:MyHardWare/Src/encoder.c **** 
 319:MyHardWare/Src/encoder.c ****     // 判断方向
 320:MyHardWare/Src/encoder.c ****     if (delta > 0) {
 321:MyHardWare/Src/encoder.c ****       instance->_data.direction = ENCODER_DIR_FORWARD;
 322:MyHardWare/Src/encoder.c ****     } else if (delta < 0) {
 323:MyHardWare/Src/encoder.c ****       instance->_data.direction = ENCODER_DIR_BACKWARD;
 324:MyHardWare/Src/encoder.c ****     } else {
 325:MyHardWare/Src/encoder.c ****       instance->_data.direction = ENCODER_DIR_STOPPED;
 326:MyHardWare/Src/encoder.c ****     }
 327:MyHardWare/Src/encoder.c **** 
 328:MyHardWare/Src/encoder.c ****     // 更新时间戳
 329:MyHardWare/Src/encoder.c ****     instance->_data.last_update_time = current_time;
 330:MyHardWare/Src/encoder.c ****   }
 331:MyHardWare/Src/encoder.c **** #else
 332:MyHardWare/Src/encoder.c ****   // 双驱模式：处理 2 个编码器
 333:MyHardWare/Src/encoder.c ****   Encoder_Class_t *encoders[] = {&Encoder_Right, &Encoder_Left};
 162              		.loc 1 333 3 view .LVU27
 163              		.loc 1 333 20 is_stmt 0 view .LVU28
 164 0004 3A4B     		ldr	r3, .L16
 165 0006 93E80300 		ldm	r3, {r0, r1}
 166 000a 04AB     		add	r3, sp, #16
 167 000c 03E90300 		stmdb	r3, {r0, r1}
 334:MyHardWare/Src/encoder.c ****   int32_t current_count[2];
 168              		.loc 1 334 3 is_stmt 1 view .LVU29
 335:MyHardWare/Src/encoder.c ****   current_count[0] = (int32_t)TIM_GetCounter(Encoder_Right.tim);
 169              		.loc 1 335 3 view .LVU30
 170              		.loc 1 335 31 is_stmt 0 view .LVU31
 171 0010 384B     		ldr	r3, .L16+4
 172 0012 986B     		ldr	r0, [r3, #56]
 173 0014 FFF7FEFF 		bl	TIM_GetCounter
 174              	.LVL11:
 175              		.loc 1 335 20 discriminator 1 view .LVU32
 176 0018 0090     		str	r0, [sp]
 336:MyHardWare/Src/encoder.c ****   current_count[1] = (int32_t)TIM_GetCounter(Encoder_Left.tim);
 177              		.loc 1 336 3 is_stmt 1 view .LVU33
 178              		.loc 1 336 31 is_stmt 0 view .LVU34
 179 001a 374B     		ldr	r3, .L16+8
 180 001c 986B     		ldr	r0, [r3, #56]
ARM GAS  /tmp/cctrT0F4.s 			page 10


 181 001e FFF7FEFF 		bl	TIM_GetCounter
 182              	.LVL12:
 183              		.loc 1 336 20 discriminator 1 view .LVU35
 184 0022 0190     		str	r0, [sp, #4]
 337:MyHardWare/Src/encoder.c **** 
 338:MyHardWare/Src/encoder.c ****   for (int i = 0; i < 2; i++) {
 185              		.loc 1 338 3 is_stmt 1 view .LVU36
 186              	.LBB2:
 187              		.loc 1 338 8 view .LVU37
 188              	.LVL13:
 189              		.loc 1 338 12 is_stmt 0 view .LVU38
 190 0024 0024     		movs	r4, #0
 191              		.loc 1 338 3 view .LVU39
 192 0026 41E0     		b	.L6
 193              	.LVL14:
 194              	.L7:
 195              	.LBB3:
 339:MyHardWare/Src/encoder.c ****     uint32_t current_time = GetSysTick();
 340:MyHardWare/Src/encoder.c ****     Encoder_Class_t *instance = encoders[i];
 341:MyHardWare/Src/encoder.c **** 
 342:MyHardWare/Src/encoder.c ****     // 读取当前计数值 (支持 32 位定时器)
 343:MyHardWare/Src/encoder.c **** 
 344:MyHardWare/Src/encoder.c ****     // 计算增量并处理计数器溢出/下溢
 345:MyHardWare/Src/encoder.c ****     int32_t delta = current_count[i] - instance->_data.last_count;
 346:MyHardWare/Src/encoder.c **** 
 347:MyHardWare/Src/encoder.c ****     // 检测是否发生溢出或下溢（ARR=2000000）
 348:MyHardWare/Src/encoder.c ****     if (delta > 1000000) {
 349:MyHardWare/Src/encoder.c ****       // 计数器从 2000000 回绕到 0，需要减去 2000001
 350:MyHardWare/Src/encoder.c ****       delta -= 2000001;
 351:MyHardWare/Src/encoder.c ****     } else if (delta < -1000000) {
 196              		.loc 1 351 12 is_stmt 1 view .LVU40
 197              		.loc 1 351 15 is_stmt 0 view .LVU41
 198 0028 344D     		ldr	r5, .L16+12
 199 002a AA42     		cmp	r2, r5
 200 002c 03DA     		bge	.L8
 352:MyHardWare/Src/encoder.c ****       // 计数器从 0 回绕到 2000000，需要加上 2000001
 353:MyHardWare/Src/encoder.c ****       delta += 2000001;
 201              		.loc 1 353 7 is_stmt 1 view .LVU42
 202              		.loc 1 353 13 is_stmt 0 view .LVU43
 203 002e 02F5F412 		add	r2, r2, #1998848
 204              	.LVL15:
 205              		.loc 1 353 13 view .LVU44
 206 0032 02F28142 		addw	r2, r2, #1153
 207              	.LVL16:
 208              	.L8:
 354:MyHardWare/Src/encoder.c ****     }
 355:MyHardWare/Src/encoder.c **** 
 356:MyHardWare/Src/encoder.c ****     // 更新数据结构
 357:MyHardWare/Src/encoder.c ****     instance->_data.count = current_count[i];
 209              		.loc 1 357 5 is_stmt 1 view .LVU45
 210              		.loc 1 357 27 is_stmt 0 view .LVU46
 211 0036 1960     		str	r1, [r3]
 358:MyHardWare/Src/encoder.c ****     instance->_data.delta_count = delta;
 212              		.loc 1 358 5 is_stmt 1 view .LVU47
 213              		.loc 1 358 33 is_stmt 0 view .LVU48
 214 0038 9A60     		str	r2, [r3, #8]
 359:MyHardWare/Src/encoder.c ****     instance->_data.last_count = current_count[i];
ARM GAS  /tmp/cctrT0F4.s 			page 11


 215              		.loc 1 359 5 is_stmt 1 view .LVU49
 216              		.loc 1 359 32 is_stmt 0 view .LVU50
 217 003a 5960     		str	r1, [r3, #4]
 360:MyHardWare/Src/encoder.c ****     instance->_data.total_count += delta;
 218              		.loc 1 360 5 is_stmt 1 view .LVU51
 219              		.loc 1 360 20 is_stmt 0 view .LVU52
 220 003c D969     		ldr	r1, [r3, #28]
 221              		.loc 1 360 33 view .LVU53
 222 003e 1144     		add	r1, r1, r2
 223 0040 D961     		str	r1, [r3, #28]
 361:MyHardWare/Src/encoder.c ****     // 计算速度
 362:MyHardWare/Src/encoder.c ****     instance->_data.speed_rps = (float)delta / (float)ENCODER_PPR / dt_seconds;
 224              		.loc 1 362 5 is_stmt 1 view .LVU54
 225              		.loc 1 362 33 is_stmt 0 view .LVU55
 226 0042 07EE902A 		vmov	s15, r2	@ int
 227 0046 F8EEE76A 		vcvt.f32.s32	s13, s15
 228              		.loc 1 362 46 view .LVU56
 229 004a DFED2D7A 		vldr.32	s15, .L16+16
 230 004e 86EEA77A 		vdiv.f32	s14, s13, s15
 231              		.loc 1 362 67 view .LVU57
 232 0052 DFED2C6A 		vldr.32	s13, .L16+20
 233 0056 C7EE267A 		vdiv.f32	s15, s14, s13
 234              		.loc 1 362 31 view .LVU58
 235 005a C3ED047A 		vstr.32	s15, [r3, #16]
 363:MyHardWare/Src/encoder.c ****     instance->_data.speed_rpm = instance->_data.speed_rps / RPM_TO_RPS;
 236              		.loc 1 363 5 is_stmt 1 view .LVU59
 237              		.loc 1 363 59 is_stmt 0 view .LVU60
 238 005e 9FED2A6A 		vldr.32	s12, .L16+24
 239 0062 87EE867A 		vdiv.f32	s14, s15, s12
 240              		.loc 1 363 31 view .LVU61
 241 0066 83ED037A 		vstr.32	s14, [r3, #12]
 364:MyHardWare/Src/encoder.c ****     instance->_data.speed_rad_s = instance->_data.speed_rps * 6.28318f;
 242              		.loc 1 364 5 is_stmt 1 view .LVU62
 243              		.loc 1 364 61 is_stmt 0 view .LVU63
 244 006a 9FED287A 		vldr.32	s14, .L16+28
 245 006e 67EE877A 		vmul.f32	s15, s15, s14
 246              		.loc 1 364 33 view .LVU64
 247 0072 C3ED057A 		vstr.32	s15, [r3, #20]
 365:MyHardWare/Src/encoder.c ****     instance->_data.speed_m_s =
 248              		.loc 1 365 5 is_stmt 1 view .LVU65
 366:MyHardWare/Src/encoder.c ****         instance->_data.speed_rad_s * (instance->_data.wheel_diameter / 2.0f);
 249              		.loc 1 366 55 is_stmt 0 view .LVU66
 250 0076 93ED0A7A 		vldr.32	s14, [r3, #40]
 251              		.loc 1 366 71 view .LVU67
 252 007a B6EE006A 		vmov.f32	s12, #5.0e-1
 253 007e 27EE067A 		vmul.f32	s14, s14, s12
 254              		.loc 1 366 37 view .LVU68
 255 0082 67EE877A 		vmul.f32	s15, s15, s14
 365:MyHardWare/Src/encoder.c ****     instance->_data.speed_m_s =
 256              		.loc 1 365 31 view .LVU69
 257 0086 C3ED067A 		vstr.32	s15, [r3, #24]
 367:MyHardWare/Src/encoder.c ****     // if (debug_step > 10) {
 368:MyHardWare/Src/encoder.c ****     // if (i) {
 369:MyHardWare/Src/encoder.c ****     //   printf("LEFT:delta:%d,speed:%f\r\n", delta,
 370:MyHardWare/Src/encoder.c ****     //   instance->_data.speed_m_s);
 371:MyHardWare/Src/encoder.c ****     // } else {
 372:MyHardWare/Src/encoder.c ****     //   printf("RIGHT:delta:%d,speed:%f\r\n", delta,
ARM GAS  /tmp/cctrT0F4.s 			page 12


 373:MyHardWare/Src/encoder.c ****     //   instance->_data.speed_m_s);
 374:MyHardWare/Src/encoder.c ****     // }
 375:MyHardWare/Src/encoder.c ****     // }
 376:MyHardWare/Src/encoder.c **** 
 377:MyHardWare/Src/encoder.c ****     // 更新总里程
 378:MyHardWare/Src/encoder.c ****     instance->_data.total_distance += instance->_data.speed_m_s * dt_seconds;
 258              		.loc 1 378 5 is_stmt 1 view .LVU70
 259              		.loc 1 378 54 is_stmt 0 view .LVU71
 260 008a 93ED067A 		vldr.32	s14, [r3, #24]
 261              		.loc 1 378 65 view .LVU72
 262 008e 27EE267A 		vmul.f32	s14, s14, s13
 263              		.loc 1 378 20 view .LVU73
 264 0092 D3ED087A 		vldr.32	s15, [r3, #32]
 265              		.loc 1 378 36 view .LVU74
 266 0096 77EE877A 		vadd.f32	s15, s15, s14
 267 009a C3ED087A 		vstr.32	s15, [r3, #32]
 379:MyHardWare/Src/encoder.c **** 
 380:MyHardWare/Src/encoder.c ****     // 判断方向
 381:MyHardWare/Src/encoder.c ****     if (delta > 0) {
 268              		.loc 1 381 5 is_stmt 1 view .LVU75
 269              		.loc 1 381 8 is_stmt 0 view .LVU76
 270 009e 002A     		cmp	r2, #0
 271 00a0 19DD     		ble	.L9
 382:MyHardWare/Src/encoder.c ****       instance->_data.direction = ENCODER_DIR_FORWARD;
 272              		.loc 1 382 7 is_stmt 1 view .LVU77
 273              		.loc 1 382 33 is_stmt 0 view .LVU78
 274 00a2 0122     		movs	r2, #1
 275              	.LVL17:
 276              		.loc 1 382 33 view .LVU79
 277 00a4 83F82420 		strb	r2, [r3, #36]
 278              	.L10:
 383:MyHardWare/Src/encoder.c ****     } else if (delta < 0) {
 384:MyHardWare/Src/encoder.c ****       instance->_data.direction = ENCODER_DIR_BACKWARD;
 385:MyHardWare/Src/encoder.c ****     } else {
 386:MyHardWare/Src/encoder.c ****       instance->_data.direction = ENCODER_DIR_STOPPED;
 387:MyHardWare/Src/encoder.c ****     }
 388:MyHardWare/Src/encoder.c **** 
 389:MyHardWare/Src/encoder.c ****     // 更新时间戳
 390:MyHardWare/Src/encoder.c ****     instance->_data.last_update_time = current_time;
 279              		.loc 1 390 5 is_stmt 1 view .LVU80
 280              		.loc 1 390 38 is_stmt 0 view .LVU81
 281 00a8 1863     		str	r0, [r3, #48]
 282              	.LBE3:
 338:MyHardWare/Src/encoder.c ****     uint32_t current_time = GetSysTick();
 283              		.loc 1 338 27 is_stmt 1 discriminator 2 view .LVU82
 284 00aa 0134     		adds	r4, r4, #1
 285              	.LVL18:
 286              	.L6:
 338:MyHardWare/Src/encoder.c ****     uint32_t current_time = GetSysTick();
 287              		.loc 1 338 21 discriminator 1 view .LVU83
 288 00ac 012C     		cmp	r4, #1
 289 00ae 1CDC     		bgt	.L14
 290              	.LBB4:
 339:MyHardWare/Src/encoder.c ****     Encoder_Class_t *instance = encoders[i];
 291              		.loc 1 339 5 view .LVU84
 339:MyHardWare/Src/encoder.c ****     Encoder_Class_t *instance = encoders[i];
 292              		.loc 1 339 29 is_stmt 0 view .LVU85
ARM GAS  /tmp/cctrT0F4.s 			page 13


 293 00b0 FFF7FEFF 		bl	GetSysTick
 294              	.LVL19:
 340:MyHardWare/Src/encoder.c **** 
 295              		.loc 1 340 5 is_stmt 1 view .LVU86
 340:MyHardWare/Src/encoder.c **** 
 296              		.loc 1 340 22 is_stmt 0 view .LVU87
 297 00b4 04AB     		add	r3, sp, #16
 298 00b6 03EB8402 		add	r2, r3, r4, lsl #2
 299 00ba 52F8083C 		ldr	r3, [r2, #-8]
 300              	.LVL20:
 345:MyHardWare/Src/encoder.c **** 
 301              		.loc 1 345 5 is_stmt 1 view .LVU88
 345:MyHardWare/Src/encoder.c **** 
 302              		.loc 1 345 34 is_stmt 0 view .LVU89
 303 00be 52F8101C 		ldr	r1, [r2, #-16]
 345:MyHardWare/Src/encoder.c **** 
 304              		.loc 1 345 55 view .LVU90
 305 00c2 5A68     		ldr	r2, [r3, #4]
 345:MyHardWare/Src/encoder.c **** 
 306              		.loc 1 345 13 view .LVU91
 307 00c4 8A1A     		subs	r2, r1, r2
 308              	.LVL21:
 348:MyHardWare/Src/encoder.c ****       // 计数器从 2000000 回绕到 0，需要减去 2000001
 309              		.loc 1 348 5 is_stmt 1 view .LVU92
 348:MyHardWare/Src/encoder.c ****       // 计数器从 2000000 回绕到 0，需要减去 2000001
 310              		.loc 1 348 8 is_stmt 0 view .LVU93
 311 00c6 124D     		ldr	r5, .L16+32
 312 00c8 AA42     		cmp	r2, r5
 313 00ca ADDD     		ble	.L7
 350:MyHardWare/Src/encoder.c ****     } else if (delta < -1000000) {
 314              		.loc 1 350 7 is_stmt 1 view .LVU94
 350:MyHardWare/Src/encoder.c ****     } else if (delta < -1000000) {
 315              		.loc 1 350 13 is_stmt 0 view .LVU95
 316 00cc A2F5F412 		sub	r2, r2, #1998848
 317              	.LVL22:
 350:MyHardWare/Src/encoder.c ****     } else if (delta < -1000000) {
 318              		.loc 1 350 13 view .LVU96
 319 00d0 A2F28142 		subw	r2, r2, #1153
 320              	.LVL23:
 350:MyHardWare/Src/encoder.c ****     } else if (delta < -1000000) {
 321              		.loc 1 350 13 view .LVU97
 322 00d4 AFE7     		b	.L8
 323              	.L9:
 383:MyHardWare/Src/encoder.c ****       instance->_data.direction = ENCODER_DIR_BACKWARD;
 324              		.loc 1 383 12 is_stmt 1 view .LVU98
 383:MyHardWare/Src/encoder.c ****       instance->_data.direction = ENCODER_DIR_BACKWARD;
 325              		.loc 1 383 15 is_stmt 0 view .LVU99
 326 00d6 002A     		cmp	r2, #0
 327 00d8 03DB     		blt	.L15
 386:MyHardWare/Src/encoder.c ****     }
 328              		.loc 1 386 7 is_stmt 1 view .LVU100
 386:MyHardWare/Src/encoder.c ****     }
 329              		.loc 1 386 33 is_stmt 0 view .LVU101
 330 00da 0022     		movs	r2, #0
 331              	.LVL24:
 386:MyHardWare/Src/encoder.c ****     }
 332              		.loc 1 386 33 view .LVU102
ARM GAS  /tmp/cctrT0F4.s 			page 14


 333 00dc 83F82420 		strb	r2, [r3, #36]
 334 00e0 E2E7     		b	.L10
 335              	.LVL25:
 336              	.L15:
 384:MyHardWare/Src/encoder.c ****     } else {
 337              		.loc 1 384 7 is_stmt 1 view .LVU103
 384:MyHardWare/Src/encoder.c ****     } else {
 338              		.loc 1 384 33 is_stmt 0 view .LVU104
 339 00e2 0222     		movs	r2, #2
 340              	.LVL26:
 384:MyHardWare/Src/encoder.c ****     } else {
 341              		.loc 1 384 33 view .LVU105
 342 00e4 83F82420 		strb	r2, [r3, #36]
 343 00e8 DEE7     		b	.L10
 344              	.LVL27:
 345              	.L14:
 384:MyHardWare/Src/encoder.c ****     } else {
 346              		.loc 1 384 33 view .LVU106
 347              	.LBE4:
 348              	.LBE2:
 391:MyHardWare/Src/encoder.c ****   }
 392:MyHardWare/Src/encoder.c **** #endif
 393:MyHardWare/Src/encoder.c **** }
 349              		.loc 1 393 1 view .LVU107
 350 00ea 05B0     		add	sp, sp, #20
 351              	.LCFI5:
 352              		.cfi_def_cfa_offset 12
 353              		@ sp needed
 354 00ec 30BD     		pop	{r4, r5, pc}
 355              	.LVL28:
 356              	.L17:
 357              		.loc 1 393 1 view .LVU108
 358 00ee 00BF     		.align	2
 359              	.L16:
 360 00f0 00000000 		.word	.LANCHOR0
 361 00f4 00000000 		.word	Encoder_Right
 362 00f8 00000000 		.word	Encoder_Left
 363 00fc C0BDF0FF 		.word	-1000000
 364 0100 00C0DA46 		.word	1188741120
 365 0104 0AD7A33B 		.word	1000593162
 366 0108 8988883C 		.word	1015580809
 367 010c D00FC940 		.word	1086918608
 368 0110 40420F00 		.word	1000000
 369              		.cfi_endproc
 370              	.LFE129:
 372              		.section	.text.Encoder_TIM_Init,"ax",%progbits
 373              		.align	1
 374              		.syntax unified
 375              		.thumb
 376              		.thumb_func
 378              	Encoder_TIM_Init:
 379              	.LFB127:
 146:MyHardWare/Src/encoder.c **** #ifdef QUAD_MOTOR_DRIVE
 380              		.loc 1 146 36 is_stmt 1 view -0
 381              		.cfi_startproc
 382              		@ args = 0, pretend = 0, frame = 24
 383              		@ frame_needed = 0, uses_anonymous_args = 0
ARM GAS  /tmp/cctrT0F4.s 			page 15


 384 0000 F0B5     		push	{r4, r5, r6, r7, lr}
 385              	.LCFI6:
 386              		.cfi_def_cfa_offset 20
 387              		.cfi_offset 4, -20
 388              		.cfi_offset 5, -16
 389              		.cfi_offset 6, -12
 390              		.cfi_offset 7, -8
 391              		.cfi_offset 14, -4
 392 0002 87B0     		sub	sp, sp, #28
 393              	.LCFI7:
 394              		.cfi_def_cfa_offset 48
 223:MyHardWare/Src/encoder.c **** 
 395              		.loc 1 223 3 view .LVU110
 396 0004 0121     		movs	r1, #1
 397 0006 0920     		movs	r0, #9
 398 0008 FFF7FEFF 		bl	RCC_APB1PeriphClockCmd
 399              	.LVL29:
 226:MyHardWare/Src/encoder.c ****   TIM_TimeBaseStructure.TIM_Period =
 400              		.loc 1 226 3 view .LVU111
 227:MyHardWare/Src/encoder.c ****       2000000; // 200万计数周期，适合高分辨率编码器
 401              		.loc 1 227 3 view .LVU112
 227:MyHardWare/Src/encoder.c ****       2000000; // 200万计数周期，适合高分辨率编码器
 402              		.loc 1 227 36 is_stmt 0 view .LVU113
 403 000c 284B     		ldr	r3, .L20
 404 000e 0493     		str	r3, [sp, #16]
 229:MyHardWare/Src/encoder.c ****   TIM_TimeBaseStructure.TIM_ClockDivision = 0;
 405              		.loc 1 229 3 is_stmt 1 view .LVU114
 229:MyHardWare/Src/encoder.c ****   TIM_TimeBaseStructure.TIM_ClockDivision = 0;
 406              		.loc 1 229 39 is_stmt 0 view .LVU115
 407 0010 0024     		movs	r4, #0
 408 0012 ADF80C40 		strh	r4, [sp, #12]	@ movhi
 230:MyHardWare/Src/encoder.c ****   TIM_TimeBaseStructure.TIM_CounterMode = TIM_CounterMode_Up;
 409              		.loc 1 230 3 is_stmt 1 view .LVU116
 230:MyHardWare/Src/encoder.c ****   TIM_TimeBaseStructure.TIM_CounterMode = TIM_CounterMode_Up;
 410              		.loc 1 230 43 is_stmt 0 view .LVU117
 411 0016 ADF81440 		strh	r4, [sp, #20]	@ movhi
 231:MyHardWare/Src/encoder.c ****   TIM_TimeBaseInit(TIM2, &TIM_TimeBaseStructure);
 412              		.loc 1 231 3 is_stmt 1 view .LVU118
 231:MyHardWare/Src/encoder.c ****   TIM_TimeBaseInit(TIM2, &TIM_TimeBaseStructure);
 413              		.loc 1 231 41 is_stmt 0 view .LVU119
 414 001a ADF80E40 		strh	r4, [sp, #14]	@ movhi
 232:MyHardWare/Src/encoder.c **** 
 415              		.loc 1 232 3 is_stmt 1 view .LVU120
 416 001e 03A9     		add	r1, sp, #12
 417 0020 4FF08040 		mov	r0, #1073741824
 418 0024 FFF7FEFF 		bl	TIM_TimeBaseInit
 419              	.LVL30:
 235:MyHardWare/Src/encoder.c ****   TIM_IC_InitStructure.TIM_Channel = TIM_Channel_1;
 420              		.loc 1 235 3 view .LVU121
 236:MyHardWare/Src/encoder.c ****   TIM_IC_InitStructure.TIM_ICPolarity = TIM_ICPolarity_Rising;
 421              		.loc 1 236 3 view .LVU122
 236:MyHardWare/Src/encoder.c ****   TIM_IC_InitStructure.TIM_ICPolarity = TIM_ICPolarity_Rising;
 422              		.loc 1 236 36 is_stmt 0 view .LVU123
 423 0028 ADF80040 		strh	r4, [sp]	@ movhi
 237:MyHardWare/Src/encoder.c ****   TIM_IC_InitStructure.TIM_ICSelection = TIM_ICSelection_DirectTI;
 424              		.loc 1 237 3 is_stmt 1 view .LVU124
 237:MyHardWare/Src/encoder.c ****   TIM_IC_InitStructure.TIM_ICSelection = TIM_ICSelection_DirectTI;
ARM GAS  /tmp/cctrT0F4.s 			page 16


 425              		.loc 1 237 39 is_stmt 0 view .LVU125
 426 002c ADF80240 		strh	r4, [sp, #2]	@ movhi
 238:MyHardWare/Src/encoder.c ****   TIM_IC_InitStructure.TIM_ICPrescaler = TIM_ICPSC_DIV1;
 427              		.loc 1 238 3 is_stmt 1 view .LVU126
 238:MyHardWare/Src/encoder.c ****   TIM_IC_InitStructure.TIM_ICPrescaler = TIM_ICPSC_DIV1;
 428              		.loc 1 238 40 is_stmt 0 view .LVU127
 429 0030 0126     		movs	r6, #1
 430 0032 ADF80460 		strh	r6, [sp, #4]	@ movhi
 239:MyHardWare/Src/encoder.c ****   TIM_IC_InitStructure.TIM_ICFilter = 0x05; // 滤波器设置
 431              		.loc 1 239 3 is_stmt 1 view .LVU128
 239:MyHardWare/Src/encoder.c ****   TIM_IC_InitStructure.TIM_ICFilter = 0x05; // 滤波器设置
 432              		.loc 1 239 40 is_stmt 0 view .LVU129
 433 0036 ADF80640 		strh	r4, [sp, #6]	@ movhi
 240:MyHardWare/Src/encoder.c ****   TIM_ICInit(TIM2, &TIM_IC_InitStructure);
 434              		.loc 1 240 3 is_stmt 1 view .LVU130
 240:MyHardWare/Src/encoder.c ****   TIM_ICInit(TIM2, &TIM_IC_InitStructure);
 435              		.loc 1 240 37 is_stmt 0 view .LVU131
 436 003a 0523     		movs	r3, #5
 437 003c ADF80830 		strh	r3, [sp, #8]	@ movhi
 241:MyHardWare/Src/encoder.c **** 
 438              		.loc 1 241 3 is_stmt 1 view .LVU132
 439 0040 6946     		mov	r1, sp
 440 0042 4FF08040 		mov	r0, #1073741824
 441 0046 FFF7FEFF 		bl	TIM_ICInit
 442              	.LVL31:
 243:MyHardWare/Src/encoder.c ****   TIM_ICInit(TIM2, &TIM_IC_InitStructure);
 443              		.loc 1 243 3 view .LVU133
 243:MyHardWare/Src/encoder.c ****   TIM_ICInit(TIM2, &TIM_IC_InitStructure);
 444              		.loc 1 243 36 is_stmt 0 view .LVU134
 445 004a 0427     		movs	r7, #4
 446 004c ADF80070 		strh	r7, [sp]	@ movhi
 244:MyHardWare/Src/encoder.c **** 
 447              		.loc 1 244 3 is_stmt 1 view .LVU135
 448 0050 6946     		mov	r1, sp
 449 0052 4FF08040 		mov	r0, #1073741824
 450 0056 FFF7FEFF 		bl	TIM_ICInit
 451              	.LVL32:
 247:MyHardWare/Src/encoder.c ****                              TIM_ICPolarity_Rising);
 452              		.loc 1 247 3 view .LVU136
 453 005a 2346     		mov	r3, r4
 454 005c 2246     		mov	r2, r4
 455 005e 3146     		mov	r1, r6
 456 0060 4FF08040 		mov	r0, #1073741824
 457 0064 FFF7FEFF 		bl	TIM_EncoderInterfaceConfig
 458              	.LVL33:
 249:MyHardWare/Src/encoder.c **** 
 459              		.loc 1 249 3 view .LVU137
 460 0068 3146     		mov	r1, r6
 461 006a 4FF08040 		mov	r0, #1073741824
 462 006e FFF7FEFF 		bl	TIM_Cmd
 463              	.LVL34:
 252:MyHardWare/Src/encoder.c **** 
 464              		.loc 1 252 3 view .LVU138
 465 0072 104D     		ldr	r5, .L20+4
 466 0074 03A9     		add	r1, sp, #12
 467 0076 2846     		mov	r0, r5
 468 0078 FFF7FEFF 		bl	TIM_TimeBaseInit
ARM GAS  /tmp/cctrT0F4.s 			page 17


 469              	.LVL35:
 254:MyHardWare/Src/encoder.c ****   TIM_ICInit(TIM5, &TIM_IC_InitStructure);
 470              		.loc 1 254 3 view .LVU139
 254:MyHardWare/Src/encoder.c ****   TIM_ICInit(TIM5, &TIM_IC_InitStructure);
 471              		.loc 1 254 36 is_stmt 0 view .LVU140
 472 007c ADF80040 		strh	r4, [sp]	@ movhi
 255:MyHardWare/Src/encoder.c **** 
 473              		.loc 1 255 3 is_stmt 1 view .LVU141
 474 0080 6946     		mov	r1, sp
 475 0082 2846     		mov	r0, r5
 476 0084 FFF7FEFF 		bl	TIM_ICInit
 477              	.LVL36:
 257:MyHardWare/Src/encoder.c ****   TIM_ICInit(TIM5, &TIM_IC_InitStructure);
 478              		.loc 1 257 3 view .LVU142
 257:MyHardWare/Src/encoder.c ****   TIM_ICInit(TIM5, &TIM_IC_InitStructure);
 479              		.loc 1 257 36 is_stmt 0 view .LVU143
 480 0088 ADF80070 		strh	r7, [sp]	@ movhi
 258:MyHardWare/Src/encoder.c **** 
 481              		.loc 1 258 3 is_stmt 1 view .LVU144
 482 008c 6946     		mov	r1, sp
 483 008e 2846     		mov	r0, r5
 484 0090 FFF7FEFF 		bl	TIM_ICInit
 485              	.LVL37:
 260:MyHardWare/Src/encoder.c ****                              TIM_ICPolarity_Rising);
 486              		.loc 1 260 3 view .LVU145
 487 0094 2346     		mov	r3, r4
 488 0096 2246     		mov	r2, r4
 489 0098 3146     		mov	r1, r6
 490 009a 2846     		mov	r0, r5
 491 009c FFF7FEFF 		bl	TIM_EncoderInterfaceConfig
 492              	.LVL38:
 262:MyHardWare/Src/encoder.c **** #endif
 493              		.loc 1 262 3 view .LVU146
 494 00a0 3146     		mov	r1, r6
 495 00a2 2846     		mov	r0, r5
 496 00a4 FFF7FEFF 		bl	TIM_Cmd
 497              	.LVL39:
 264:MyHardWare/Src/encoder.c **** }
 498              		.loc 1 264 3 view .LVU147
 499 00a8 FFF7FEFF 		bl	Encoder_Update
 500              	.LVL40:
 265:MyHardWare/Src/encoder.c **** 
 501              		.loc 1 265 1 is_stmt 0 view .LVU148
 502 00ac 07B0     		add	sp, sp, #28
 503              	.LCFI8:
 504              		.cfi_def_cfa_offset 20
 505              		@ sp needed
 506 00ae F0BD     		pop	{r4, r5, r6, r7, pc}
 507              	.L21:
 508              		.align	2
 509              	.L20:
 510 00b0 80841E00 		.word	2000000
 511 00b4 000C0040 		.word	1073744896
 512              		.cfi_endproc
 513              	.LFE127:
 515              		.section	.text.Encoder_Driver_Init,"ax",%progbits
 516              		.align	1
ARM GAS  /tmp/cctrT0F4.s 			page 18


 517              		.global	Encoder_Driver_Init
 518              		.syntax unified
 519              		.thumb
 520              		.thumb_func
 522              	Encoder_Driver_Init:
 523              	.LFB128:
 267:MyHardWare/Src/encoder.c ****   Encoder_GPIO_Init();
 524              		.loc 1 267 32 is_stmt 1 view -0
 525              		.cfi_startproc
 526              		@ args = 0, pretend = 0, frame = 0
 527              		@ frame_needed = 0, uses_anonymous_args = 0
 528 0000 08B5     		push	{r3, lr}
 529              	.LCFI9:
 530              		.cfi_def_cfa_offset 8
 531              		.cfi_offset 3, -8
 532              		.cfi_offset 14, -4
 268:MyHardWare/Src/encoder.c ****   Encoder_TIM_Init();
 533              		.loc 1 268 3 view .LVU150
 534 0002 FFF7FEFF 		bl	Encoder_GPIO_Init
 535              	.LVL41:
 269:MyHardWare/Src/encoder.c **** }
 536              		.loc 1 269 3 view .LVU151
 537 0006 FFF7FEFF 		bl	Encoder_TIM_Init
 538              	.LVL42:
 270:MyHardWare/Src/encoder.c **** 
 539              		.loc 1 270 1 is_stmt 0 view .LVU152
 540 000a 08BD     		pop	{r3, pc}
 541              		.cfi_endproc
 542              	.LFE128:
 544              		.section	.text.Encoder_GetData,"ax",%progbits
 545              		.align	1
 546              		.global	Encoder_GetData
 547              		.syntax unified
 548              		.thumb
 549              		.thumb_func
 551              	Encoder_GetData:
 552              	.LVL43:
 553              	.LFB130:
 394:MyHardWare/Src/encoder.c **** Encoder_Data_t Encoder_GetData(Encoder_Id_e encoder) {
 554              		.loc 1 394 54 is_stmt 1 view -0
 555              		.cfi_startproc
 556              		@ args = 0, pretend = 0, frame = 64
 557              		@ frame_needed = 0, uses_anonymous_args = 0
 558              		.loc 1 394 54 is_stmt 0 view .LVU154
 559 0000 30B5     		push	{r4, r5, lr}
 560              	.LCFI10:
 561              		.cfi_def_cfa_offset 12
 562              		.cfi_offset 4, -12
 563              		.cfi_offset 5, -8
 564              		.cfi_offset 14, -4
 565 0002 91B0     		sub	sp, sp, #68
 566              	.LCFI11:
 567              		.cfi_def_cfa_offset 80
 568 0004 0546     		mov	r5, r0
 569 0006 0C46     		mov	r4, r1
 395:MyHardWare/Src/encoder.c ****   Encoder_Update(); // 确保数据是最新的
 570              		.loc 1 395 3 is_stmt 1 view .LVU155
ARM GAS  /tmp/cctrT0F4.s 			page 19


 571 0008 FFF7FEFF 		bl	Encoder_Update
 572              	.LVL44:
 396:MyHardWare/Src/encoder.c ****   Encoder_Data_t empty_data = {0};
 573              		.loc 1 396 3 view .LVU156
 574              		.loc 1 396 18 is_stmt 0 view .LVU157
 575 000c 3422     		movs	r2, #52
 576 000e 0021     		movs	r1, #0
 577 0010 03A8     		add	r0, sp, #12
 578 0012 FFF7FEFF 		bl	memset
 579              	.LVL45:
 397:MyHardWare/Src/encoder.c **** 
 398:MyHardWare/Src/encoder.c ****   // 参数检查
 399:MyHardWare/Src/encoder.c ****   if (encoder >= ENCODER_MAX) {
 580              		.loc 1 399 3 is_stmt 1 view .LVU158
 581              		.loc 1 399 6 is_stmt 0 view .LVU159
 582 0016 012C     		cmp	r4, #1
 583 0018 1AD8     		bhi	.L28
 400:MyHardWare/Src/encoder.c ****     return empty_data;
 401:MyHardWare/Src/encoder.c ****   }
 402:MyHardWare/Src/encoder.c **** 
 403:MyHardWare/Src/encoder.c **** #ifdef QUAD_MOTOR_DRIVE
 404:MyHardWare/Src/encoder.c ****   // 四驱模式：返回 4 个编码器的数据
 405:MyHardWare/Src/encoder.c ****   Encoder_Class_t *encoders[] = {&Encoder_FR, &Encoder_FL, &Encoder_BR,
 406:MyHardWare/Src/encoder.c ****                                  &Encoder_BL};
 407:MyHardWare/Src/encoder.c **** #else
 408:MyHardWare/Src/encoder.c ****   // 双驱模式：返回 2 个编码器的数据
 409:MyHardWare/Src/encoder.c ****   Encoder_Class_t *encoders[] = {&Encoder_Right, &Encoder_Left};
 584              		.loc 1 409 3 is_stmt 1 view .LVU160
 585              		.loc 1 409 20 is_stmt 0 view .LVU161
 586 001a 104A     		ldr	r2, .L29
 587 001c 01AB     		add	r3, sp, #4
 588 001e 92E80300 		ldm	r2, {r0, r1}
 589 0022 83E80300 		stm	r3, {r0, r1}
 410:MyHardWare/Src/encoder.c **** #endif
 411:MyHardWare/Src/encoder.c **** 
 412:MyHardWare/Src/encoder.c ****   // 返回对应编码器的数据副本
 413:MyHardWare/Src/encoder.c ****   return encoders[encoder]->_data;
 590              		.loc 1 413 3 is_stmt 1 view .LVU162
 591              		.loc 1 413 18 is_stmt 0 view .LVU163
 592 0026 10AB     		add	r3, sp, #64
 593 0028 03EB8404 		add	r4, r3, r4, lsl #2
 594              	.LVL46:
 595              		.loc 1 413 27 view .LVU164
 596 002c AC46     		mov	ip, r5
 597 002e 54F83C4C 		ldr	r4, [r4, #-60]
 598 0032 0FCC     		ldmia	r4!, {r0, r1, r2, r3}
 599 0034 ACE80F00 		stmia	ip!, {r0, r1, r2, r3}
 600 0038 0FCC     		ldmia	r4!, {r0, r1, r2, r3}
 601 003a ACE80F00 		stmia	ip!, {r0, r1, r2, r3}
 602 003e 0FCC     		ldmia	r4!, {r0, r1, r2, r3}
 603 0040 ACE80F00 		stmia	ip!, {r0, r1, r2, r3}
 604 0044 2368     		ldr	r3, [r4]
 605 0046 CCF80030 		str	r3, [ip]
 606              	.L24:
 414:MyHardWare/Src/encoder.c **** }
 607              		.loc 1 414 1 view .LVU165
 608 004a 2846     		mov	r0, r5
ARM GAS  /tmp/cctrT0F4.s 			page 20


 609 004c 11B0     		add	sp, sp, #68
 610              	.LCFI12:
 611              		.cfi_remember_state
 612              		.cfi_def_cfa_offset 12
 613              		@ sp needed
 614 004e 30BD     		pop	{r4, r5, pc}
 615              	.LVL47:
 616              	.L28:
 617              	.LCFI13:
 618              		.cfi_restore_state
 400:MyHardWare/Src/encoder.c ****     return empty_data;
 619              		.loc 1 400 5 is_stmt 1 view .LVU166
 400:MyHardWare/Src/encoder.c ****     return empty_data;
 620              		.loc 1 400 12 is_stmt 0 view .LVU167
 621 0050 3422     		movs	r2, #52
 622 0052 0021     		movs	r1, #0
 623 0054 2846     		mov	r0, r5
 624 0056 FFF7FEFF 		bl	memset
 625              	.LVL48:
 626 005a F6E7     		b	.L24
 627              	.L30:
 628              		.align	2
 629              	.L29:
 630 005c 00000000 		.word	.LANCHOR0
 631              		.cfi_endproc
 632              	.LFE130:
 634              		.section	.data.Encoder_Left,"aw"
 635              		.align	2
 638              	Encoder_Left:
 639 0000 00000000 		.word	0
 640 0004 00000000 		.word	0
 641 0008 00000000 		.word	0
 642 000c 00000000 		.word	0
 643 0010 00000000 		.word	0
 644 0014 00000000 		.word	0
 645 0018 00000000 		.word	0
 646 001c 00000000 		.word	0
 647 0020 00000000 		.word	0
 648 0024 00       		.byte	0
 649 0025 000000   		.space	3
 650 0028 B81E853D 		.word	1032134328
 651 002c 0000803F 		.word	1065353216
 652 0030 00000000 		.word	0
 653 0034 00       		.byte	0
 654 0035 01       		.byte	1
 655 0036 0000     		.space	2
 656 0038 00000040 		.word	1073741824
 657              		.section	.data.Encoder_Right,"aw"
 658              		.align	2
 661              	Encoder_Right:
 662 0000 00000000 		.word	0
 663 0004 00000000 		.word	0
 664 0008 00000000 		.word	0
 665 000c 00000000 		.word	0
 666 0010 00000000 		.word	0
 667 0014 00000000 		.word	0
 668 0018 00000000 		.word	0
ARM GAS  /tmp/cctrT0F4.s 			page 21


 669 001c 00000000 		.word	0
 670 0020 00000000 		.word	0
 671 0024 00       		.byte	0
 672 0025 000000   		.space	3
 673 0028 B81E853D 		.word	1032134328
 674 002c 0000803F 		.word	1065353216
 675 0030 00000000 		.word	0
 676 0034 00       		.byte	0
 677 0035 00       		.byte	0
 678 0036 0000     		.space	2
 679 0038 000C0040 		.word	1073744896
 680              		.section	.rodata
 681              		.align	2
 682              		.set	.LANCHOR0,. + 0
 683              	.LC0:
 684 0000 00000000 		.word	Encoder_Right
 685 0004 00000000 		.word	Encoder_Left
 686              		.text
 687              	.Letext0:
 688              		.file 2 "/usr/lib/gcc/arm-none-eabi/13.2.1/include/stdint.h"
 689              		.file 3 "CMSIS/stm32f4xx.h"
 690              		.file 4 "Lib/StdPeriphs/inc/stm32f4xx_gpio.h"
 691              		.file 5 "Lib/StdPeriphs/inc/stm32f4xx_tim.h"
 692              		.file 6 "MyHardWare/Inc/encoder.h"
 693              		.file 7 "Lib/StdPeriphs/inc/stm32f4xx_rcc.h"
 694              		.file 8 "MyHardWare/Inc/task.h"
 695              		.file 9 "<built-in>"
ARM GAS  /tmp/cctrT0F4.s 			page 22


DEFINED SYMBOLS
                            *ABS*:00000000 encoder.c
     /tmp/cctrT0F4.s:21     .text.Encoder_GPIO_Init:00000000 $t
     /tmp/cctrT0F4.s:26     .text.Encoder_GPIO_Init:00000000 Encoder_GPIO_Init
     /tmp/cctrT0F4.s:133    .text.Encoder_GPIO_Init:00000088 $d
     /tmp/cctrT0F4.s:139    .text.Encoder_Update:00000000 $t
     /tmp/cctrT0F4.s:145    .text.Encoder_Update:00000000 Encoder_Update
     /tmp/cctrT0F4.s:360    .text.Encoder_Update:000000f0 $d
     /tmp/cctrT0F4.s:661    .data.Encoder_Right:00000000 Encoder_Right
     /tmp/cctrT0F4.s:638    .data.Encoder_Left:00000000 Encoder_Left
     /tmp/cctrT0F4.s:373    .text.Encoder_TIM_Init:00000000 $t
     /tmp/cctrT0F4.s:378    .text.Encoder_TIM_Init:00000000 Encoder_TIM_Init
     /tmp/cctrT0F4.s:510    .text.Encoder_TIM_Init:000000b0 $d
     /tmp/cctrT0F4.s:516    .text.Encoder_Driver_Init:00000000 $t
     /tmp/cctrT0F4.s:522    .text.Encoder_Driver_Init:00000000 Encoder_Driver_Init
     /tmp/cctrT0F4.s:545    .text.Encoder_GetData:00000000 $t
     /tmp/cctrT0F4.s:551    .text.Encoder_GetData:00000000 Encoder_GetData
     /tmp/cctrT0F4.s:630    .text.Encoder_GetData:0000005c $d
     /tmp/cctrT0F4.s:635    .data.Encoder_Left:00000000 $d
     /tmp/cctrT0F4.s:658    .data.Encoder_Right:00000000 $d
     /tmp/cctrT0F4.s:681    .rodata:00000000 $d

UNDEFINED SYMBOLS
RCC_AHB1PeriphClockCmd
GPIO_Init
GPIO_PinAFConfig
TIM_GetCounter
GetSysTick
RCC_APB1PeriphClockCmd
TIM_TimeBaseInit
TIM_ICInit
TIM_EncoderInterfaceConfig
TIM_Cmd
memset
