ARM GAS  C:\Users\asus\AppData\Local\Temp\ccRZZoZk.s 			page 1


   1              		.cpu cortex-m4
   2              		.arch armv7e-m
   3              		.fpu fpv4-sp-d16
   4              		.eabi_attribute 27, 1
   5              		.eabi_attribute 28, 1
   6              		.eabi_attribute 20, 1
   7              		.eabi_attribute 21, 1
   8              		.eabi_attribute 23, 3
   9              		.eabi_attribute 24, 1
  10              		.eabi_attribute 25, 1
  11              		.eabi_attribute 26, 1
  12              		.eabi_attribute 30, 1
  13              		.eabi_attribute 34, 1
  14              		.eabi_attribute 18, 4
  15              		.file	"encoder.c"
  16              		.text
  17              	.Ltext0:
  18              		.cfi_sections	.debug_frame
  19              		.file 1 "MyHardWare/Src/encoder.c"
  20              		.section	.text.Encoder_GPIO_Init,"ax",%progbits
  21              		.align	1
  22              		.syntax unified
  23              		.thumb
  24              		.thumb_func
  26              	Encoder_GPIO_Init:
  27              	.LFB123:
   1:MyHardWare/Src/encoder.c **** 
   2:MyHardWare/Src/encoder.c **** //=============================================================================
   3:MyHardWare/Src/encoder.c **** // NOTE:
   4:MyHardWare/Src/encoder.c **** // 注意，encoder会自动解算speed,需要在头文件中确定采样周期ENCODER_SAMPLE_PERIO
   5:MyHardWare/Src/encoder.c **** //=============================================================================
   6:MyHardWare/Src/encoder.c **** 
   7:MyHardWare/Src/encoder.c **** /**
   8:MyHardWare/Src/encoder.c ****  *
   9:MyHardWare/Src/encoder.c ****  * @file encoder.c
  10:MyHardWare/Src/encoder.c ****  * @brief 编码器驱动实现文件 - 智能车专用（面向对象风格）
  11:MyHardWare/Src/encoder.c ****  * @version 2.0
  12:MyHardWare/Src/encoder.c ****  * @date 2026-03-04
  13:MyHardWare/Src/encoder.c ****  */
  14:MyHardWare/Src/encoder.c **** 
  15:MyHardWare/Src/encoder.c **** #include "encoder.h"
  16:MyHardWare/Src/encoder.c **** #include "stm32f4xx_gpio.h"
  17:MyHardWare/Src/encoder.c **** #include "stm32f4xx_rcc.h"
  18:MyHardWare/Src/encoder.c **** #include "stm32f4xx_tim.h"
  19:MyHardWare/Src/encoder.c **** 
  20:MyHardWare/Src/encoder.c **** /* ==================== 全局编码器实例定义 ==================== */
  21:MyHardWare/Src/encoder.c **** // 四驱模式编码器实例
  22:MyHardWare/Src/encoder.c **** #ifdef QUAD_MOTOR_DRIVE
  23:MyHardWare/Src/encoder.c **** Encoder_Class_t Encoder_FR = {0};
  24:MyHardWare/Src/encoder.c **** Encoder_Class_t Encoder_FL = {0};
  25:MyHardWare/Src/encoder.c **** Encoder_Class_t Encoder_BR = {0};
  26:MyHardWare/Src/encoder.c **** Encoder_Class_t Encoder_BL = {0};
  27:MyHardWare/Src/encoder.c **** #else
  28:MyHardWare/Src/encoder.c **** // 双驱模式编码器实例
  29:MyHardWare/Src/encoder.c **** static Encoder_Class_t Encoder_Right = {
  30:MyHardWare/Src/encoder.c ****     ._data = {
  31:MyHardWare/Src/encoder.c ****               .last_count = 0,
ARM GAS  C:\Users\asus\AppData\Local\Temp\ccRZZoZk.s 			page 2


  32:MyHardWare/Src/encoder.c ****               .delta_count = 0,
  33:MyHardWare/Src/encoder.c ****               .speed_rpm = 0.0f,
  34:MyHardWare/Src/encoder.c ****               .speed_rps = 0.0f,
  35:MyHardWare/Src/encoder.c ****               .speed_rad_s = 0.0f,
  36:MyHardWare/Src/encoder.c ****               .speed_m_s = 0.0f,
  37:MyHardWare/Src/encoder.c ****               .total_count = 0,
  38:MyHardWare/Src/encoder.c ****               .total_distance = 0.0f,
  39:MyHardWare/Src/encoder.c ****               .direction = ENCODER_DIR_STOPPED,
  40:MyHardWare/Src/encoder.c ****               .wheel_diameter = WHEEL_DIAMETER,
  41:MyHardWare/Src/encoder.c ****               .gear_ratio = GEAR_RATIO,
  42:MyHardWare/Src/encoder.c ****               .last_update_time = 0},
  43:MyHardWare/Src/encoder.c ****     ._initialized = 0,
  44:MyHardWare/Src/encoder.c ****     .id = ENCODER_RIGHT,
  45:MyHardWare/Src/encoder.c ****     .tim = TIM2};
  46:MyHardWare/Src/encoder.c **** 
  47:MyHardWare/Src/encoder.c **** static Encoder_Class_t Encoder_Left = {
  48:MyHardWare/Src/encoder.c ****     ._data = {
  49:MyHardWare/Src/encoder.c ****               .last_count = 0,
  50:MyHardWare/Src/encoder.c ****               .delta_count = 0,
  51:MyHardWare/Src/encoder.c ****               .speed_rpm = 0.0f,
  52:MyHardWare/Src/encoder.c ****               .speed_rps = 0.0f,
  53:MyHardWare/Src/encoder.c ****               .speed_rad_s = 0.0f,
  54:MyHardWare/Src/encoder.c ****               .speed_m_s = 0.0f,
  55:MyHardWare/Src/encoder.c ****               .total_count = 0,
  56:MyHardWare/Src/encoder.c ****               .total_distance = 0.0f,
  57:MyHardWare/Src/encoder.c ****               .direction = ENCODER_DIR_STOPPED,
  58:MyHardWare/Src/encoder.c ****               .wheel_diameter = WHEEL_DIAMETER,
  59:MyHardWare/Src/encoder.c ****               .gear_ratio = GEAR_RATIO,
  60:MyHardWare/Src/encoder.c ****               .last_update_time = 0},
  61:MyHardWare/Src/encoder.c ****     ._initialized = 0,
  62:MyHardWare/Src/encoder.c ****     .id = ENCODER_LEFT,
  63:MyHardWare/Src/encoder.c ****     .tim = TIM5}; // 修改为 TIM5
  64:MyHardWare/Src/encoder.c **** #endif
  65:MyHardWare/Src/encoder.c **** 
  66:MyHardWare/Src/encoder.c **** /* ==================== 私有函数：硬件初始化 ==================== */
  67:MyHardWare/Src/encoder.c **** 
  68:MyHardWare/Src/encoder.c **** static void Encoder_GPIO_Init(void);
  69:MyHardWare/Src/encoder.c **** static void Encoder_TIM_Init(void);
  70:MyHardWare/Src/encoder.c **** /**
  71:MyHardWare/Src/encoder.c ****  * @brief 初始化单个编码器的GPIO引脚
  72:MyHardWare/Src/encoder.c ****  * @param encoder 编码器ID
  73:MyHardWare/Src/encoder.c ****  */
  74:MyHardWare/Src/encoder.c **** static void Encoder_GPIO_Init(void) {
  28              		.loc 1 74 37 view -0
  29              		.cfi_startproc
  30              		@ args = 0, pretend = 0, frame = 8
  31              		@ frame_needed = 0, uses_anonymous_args = 0
  32 0000 2DE9F041 		push	{r4, r5, r6, r7, r8, lr}
  33              	.LCFI0:
  34              		.cfi_def_cfa_offset 24
  35              		.cfi_offset 4, -24
  36              		.cfi_offset 5, -20
  37              		.cfi_offset 6, -16
  38              		.cfi_offset 7, -12
  39              		.cfi_offset 8, -8
  40              		.cfi_offset 14, -4
  41 0004 82B0     		sub	sp, sp, #8
ARM GAS  C:\Users\asus\AppData\Local\Temp\ccRZZoZk.s 			page 3


  42              	.LCFI1:
  43              		.cfi_def_cfa_offset 32
  75:MyHardWare/Src/encoder.c ****   GPIO_InitTypeDef GPIO_InitStructure;
  44              		.loc 1 75 3 view .LVU1
  76:MyHardWare/Src/encoder.c **** 
  77:MyHardWare/Src/encoder.c **** #ifdef QUAD_MOTOR_DRIVE
  78:MyHardWare/Src/encoder.c ****   // 四驱模式：直接初始化所有 4 个编码器的 GPIO
  79:MyHardWare/Src/encoder.c ****   // 前右编码器 (TIM2)
  80:MyHardWare/Src/encoder.c ****   RCC_AHB1PeriphClockCmd(ENCODER_FR_GPIO_CLK, ENABLE);
  81:MyHardWare/Src/encoder.c ****   GPIO_InitStructure.GPIO_Pin = ENCODER_FR_CH1_PIN | ENCODER_FR_CH2_PIN;
  82:MyHardWare/Src/encoder.c ****   GPIO_InitStructure.GPIO_Mode = GPIO_Mode_AF;
  83:MyHardWare/Src/encoder.c ****   GPIO_InitStructure.GPIO_Speed = GPIO_Speed_100MHz;
  84:MyHardWare/Src/encoder.c ****   GPIO_InitStructure.GPIO_OType = GPIO_OType_PP;
  85:MyHardWare/Src/encoder.c ****   GPIO_InitStructure.GPIO_PuPd = GPIO_PuPd_UP;
  86:MyHardWare/Src/encoder.c ****   GPIO_Init(ENCODER_FR_CH1_PORT, &GPIO_InitStructure);
  87:MyHardWare/Src/encoder.c ****   GPIO_Init(ENCODER_FR_CH2_PORT, &GPIO_InitStructure);
  88:MyHardWare/Src/encoder.c ****   GPIO_PinAFConfig(ENCODER_FR_CH1_PORT, GPIO_PinSource15, ENCODER_FR_AF);
  89:MyHardWare/Src/encoder.c ****   GPIO_PinAFConfig(ENCODER_FR_CH2_PORT, GPIO_PinSource3, ENCODER_FR_AF);
  90:MyHardWare/Src/encoder.c **** 
  91:MyHardWare/Src/encoder.c ****   // 前左编码器
  92:MyHardWare/Src/encoder.c ****   RCC_AHB1PeriphClockCmd(ENCODER_FL_GPIO_CLK, ENABLE);
  93:MyHardWare/Src/encoder.c ****   GPIO_InitStructure.GPIO_Pin = ENCODER_FL_CH1_PIN | ENCODER_FL_CH2_PIN;
  94:MyHardWare/Src/encoder.c ****   GPIO_Init(ENCODER_FL_CH1_PORT, &GPIO_InitStructure);
  95:MyHardWare/Src/encoder.c ****   GPIO_Init(ENCODER_FL_CH2_PORT, &GPIO_InitStructure);
  96:MyHardWare/Src/encoder.c ****   GPIO_PinAFConfig(ENCODER_FL_CH1_PORT, GPIO_PinSource6, ENCODER_FL_AF);
  97:MyHardWare/Src/encoder.c ****   GPIO_PinAFConfig(ENCODER_FL_CH2_PORT, GPIO_PinSource7, ENCODER_FL_AF);
  98:MyHardWare/Src/encoder.c **** 
  99:MyHardWare/Src/encoder.c ****   // 后右编码器
 100:MyHardWare/Src/encoder.c ****   RCC_AHB1PeriphClockCmd(ENCODER_BR_GPIO_CLK, ENABLE);
 101:MyHardWare/Src/encoder.c ****   GPIO_InitStructure.GPIO_Pin = ENCODER_BR_CH1_PIN | ENCODER_BR_CH2_PIN;
 102:MyHardWare/Src/encoder.c ****   GPIO_Init(ENCODER_BR_CH1_PORT, &GPIO_InitStructure);
 103:MyHardWare/Src/encoder.c ****   GPIO_Init(ENCODER_BR_CH2_PORT, &GPIO_InitStructure);
 104:MyHardWare/Src/encoder.c ****   GPIO_PinAFConfig(ENCODER_BR_CH1_PORT, GPIO_PinSource12, ENCODER_BR_AF);
 105:MyHardWare/Src/encoder.c ****   GPIO_PinAFConfig(ENCODER_BR_CH2_PORT, GPIO_PinSource13, ENCODER_BR_AF);
 106:MyHardWare/Src/encoder.c **** 
 107:MyHardWare/Src/encoder.c ****   // 后左编码器 (TIM5)
 108:MyHardWare/Src/encoder.c ****   RCC_AHB1PeriphClockCmd(ENCODER_BL_GPIO_CLK, ENABLE);
 109:MyHardWare/Src/encoder.c ****   GPIO_InitStructure.GPIO_Pin = ENCODER_BL_CH1_PIN | ENCODER_BL_CH2_PIN;
 110:MyHardWare/Src/encoder.c ****   GPIO_Init(ENCODER_BL_CH1_PORT, &GPIO_InitStructure);
 111:MyHardWare/Src/encoder.c ****   GPIO_Init(ENCODER_BL_CH2_PORT, &GPIO_InitStructure);
 112:MyHardWare/Src/encoder.c ****   GPIO_PinAFConfig(ENCODER_BL_CH1_PORT, GPIO_PinSource10, ENCODER_BL_AF);
 113:MyHardWare/Src/encoder.c ****   GPIO_PinAFConfig(ENCODER_BL_CH2_PORT, GPIO_PinSource11, ENCODER_BL_AF);
 114:MyHardWare/Src/encoder.c **** 
 115:MyHardWare/Src/encoder.c **** #else
 116:MyHardWare/Src/encoder.c ****   // 双驱模式：只初始化 2 个编码器的 GPIO
 117:MyHardWare/Src/encoder.c ****   // 右编码器 (TIM5)
 118:MyHardWare/Src/encoder.c ****   RCC_AHB1PeriphClockCmd(ENCODER_RIGHT_GPIO_CLK, ENABLE);
  45              		.loc 1 118 3 view .LVU2
  46 0006 0121     		movs	r1, #1
  47 0008 0846     		mov	r0, r1
  48 000a FFF7FEFF 		bl	RCC_AHB1PeriphClockCmd
  49              	.LVL0:
 119:MyHardWare/Src/encoder.c ****   GPIO_InitStructure.GPIO_Pin = ENCODER_RIGHT_CH1_PIN | ENCODER_RIGHT_CH2_PIN;
  50              		.loc 1 119 3 view .LVU3
  51              		.loc 1 119 31 is_stmt 0 view .LVU4
  52 000e 0326     		movs	r6, #3
  53 0010 0096     		str	r6, [sp]
ARM GAS  C:\Users\asus\AppData\Local\Temp\ccRZZoZk.s 			page 4


 120:MyHardWare/Src/encoder.c ****   GPIO_InitStructure.GPIO_Mode = GPIO_Mode_AF;
  54              		.loc 1 120 3 is_stmt 1 view .LVU5
  55              		.loc 1 120 32 is_stmt 0 view .LVU6
  56 0012 0227     		movs	r7, #2
  57 0014 8DF80470 		strb	r7, [sp, #4]
 121:MyHardWare/Src/encoder.c ****   GPIO_InitStructure.GPIO_Speed = GPIO_Speed_100MHz;
  58              		.loc 1 121 3 is_stmt 1 view .LVU7
  59              		.loc 1 121 33 is_stmt 0 view .LVU8
  60 0018 8DF80560 		strb	r6, [sp, #5]
 122:MyHardWare/Src/encoder.c ****   GPIO_InitStructure.GPIO_OType = GPIO_OType_PP;
  61              		.loc 1 122 3 is_stmt 1 view .LVU9
  62              		.loc 1 122 33 is_stmt 0 view .LVU10
  63 001c 4FF00008 		mov	r8, #0
  64 0020 8DF80680 		strb	r8, [sp, #6]
 123:MyHardWare/Src/encoder.c ****   GPIO_InitStructure.GPIO_PuPd = GPIO_PuPd_UP;
  65              		.loc 1 123 3 is_stmt 1 view .LVU11
  66              		.loc 1 123 32 is_stmt 0 view .LVU12
  67 0024 0125     		movs	r5, #1
  68 0026 8DF80750 		strb	r5, [sp, #7]
 124:MyHardWare/Src/encoder.c ****   GPIO_Init(ENCODER_RIGHT_CH1_PORT, &GPIO_InitStructure);
  69              		.loc 1 124 3 is_stmt 1 view .LVU13
  70 002a 174C     		ldr	r4, .L3
  71 002c 6946     		mov	r1, sp
  72 002e 2046     		mov	r0, r4
  73 0030 FFF7FEFF 		bl	GPIO_Init
  74              	.LVL1:
 125:MyHardWare/Src/encoder.c ****   GPIO_Init(ENCODER_RIGHT_CH2_PORT, &GPIO_InitStructure);
  75              		.loc 1 125 3 view .LVU14
  76 0034 6946     		mov	r1, sp
  77 0036 2046     		mov	r0, r4
  78 0038 FFF7FEFF 		bl	GPIO_Init
  79              	.LVL2:
 126:MyHardWare/Src/encoder.c ****   GPIO_PinAFConfig(ENCODER_RIGHT_CH1_PORT, GPIO_PinSource0, ENCODER_RIGHT_AF);
  80              		.loc 1 126 3 view .LVU15
  81 003c 3A46     		mov	r2, r7
  82 003e 4146     		mov	r1, r8
  83 0040 2046     		mov	r0, r4
  84 0042 FFF7FEFF 		bl	GPIO_PinAFConfig
  85              	.LVL3:
 127:MyHardWare/Src/encoder.c ****   GPIO_PinAFConfig(ENCODER_RIGHT_CH2_PORT, GPIO_PinSource1, ENCODER_RIGHT_AF);
  86              		.loc 1 127 3 view .LVU16
  87 0046 3A46     		mov	r2, r7
  88 0048 2946     		mov	r1, r5
  89 004a 2046     		mov	r0, r4
  90 004c FFF7FEFF 		bl	GPIO_PinAFConfig
  91              	.LVL4:
 128:MyHardWare/Src/encoder.c **** 
 129:MyHardWare/Src/encoder.c ****   // 左编码器 (TIM2)
 130:MyHardWare/Src/encoder.c ****   RCC_AHB1PeriphClockCmd(ENCODER_LEFT_GPIO_CLK, ENABLE);
  92              		.loc 1 130 3 view .LVU17
  93 0050 2946     		mov	r1, r5
  94 0052 3046     		mov	r0, r6
  95 0054 FFF7FEFF 		bl	RCC_AHB1PeriphClockCmd
  96              	.LVL5:
 131:MyHardWare/Src/encoder.c ****   GPIO_InitStructure.GPIO_Pin = ENCODER_LEFT_CH1_PIN | ENCODER_LEFT_CH2_PIN;
  97              		.loc 1 131 3 view .LVU18
  98              		.loc 1 131 31 is_stmt 0 view .LVU19
ARM GAS  C:\Users\asus\AppData\Local\Temp\ccRZZoZk.s 			page 5


  99 0058 2823     		movs	r3, #40
 100 005a 0093     		str	r3, [sp]
 132:MyHardWare/Src/encoder.c ****   GPIO_Init(ENCODER_LEFT_CH1_PORT, &GPIO_InitStructure);
 101              		.loc 1 132 3 is_stmt 1 view .LVU20
 102 005c 6946     		mov	r1, sp
 103 005e 2046     		mov	r0, r4
 104 0060 FFF7FEFF 		bl	GPIO_Init
 105              	.LVL6:
 133:MyHardWare/Src/encoder.c ****   GPIO_Init(ENCODER_LEFT_CH2_PORT, &GPIO_InitStructure);
 106              		.loc 1 133 3 view .LVU21
 107 0064 094F     		ldr	r7, .L3+4
 108 0066 6946     		mov	r1, sp
 109 0068 3846     		mov	r0, r7
 110 006a FFF7FEFF 		bl	GPIO_Init
 111              	.LVL7:
 134:MyHardWare/Src/encoder.c ****   GPIO_PinAFConfig(ENCODER_LEFT_CH1_PORT, GPIO_PinSource5, ENCODER_LEFT_AF);
 112              		.loc 1 134 3 view .LVU22
 113 006e 2A46     		mov	r2, r5
 114 0070 0521     		movs	r1, #5
 115 0072 2046     		mov	r0, r4
 116 0074 FFF7FEFF 		bl	GPIO_PinAFConfig
 117              	.LVL8:
 135:MyHardWare/Src/encoder.c ****   GPIO_PinAFConfig(ENCODER_LEFT_CH2_PORT, GPIO_PinSource3, ENCODER_LEFT_AF);
 118              		.loc 1 135 3 view .LVU23
 119 0078 2A46     		mov	r2, r5
 120 007a 3146     		mov	r1, r6
 121 007c 3846     		mov	r0, r7
 122 007e FFF7FEFF 		bl	GPIO_PinAFConfig
 123              	.LVL9:
 136:MyHardWare/Src/encoder.c **** 
 137:MyHardWare/Src/encoder.c **** #endif
 138:MyHardWare/Src/encoder.c **** }
 124              		.loc 1 138 1 is_stmt 0 view .LVU24
 125 0082 02B0     		add	sp, sp, #8
 126              	.LCFI2:
 127              		.cfi_def_cfa_offset 24
 128              		@ sp needed
 129 0084 BDE8F081 		pop	{r4, r5, r6, r7, r8, pc}
 130              	.L4:
 131              		.align	2
 132              	.L3:
 133 0088 00000240 		.word	1073872896
 134 008c 00040240 		.word	1073873920
 135              		.cfi_endproc
 136              	.LFE123:
 138              		.section	.text.Encoder_Update,"ax",%progbits
 139              		.align	1
 140              		.global	Encoder_Update
 141              		.syntax unified
 142              		.thumb
 143              		.thumb_func
 145              	Encoder_Update:
 146              	.LFB126:
 139:MyHardWare/Src/encoder.c **** 
 140:MyHardWare/Src/encoder.c **** /**
 141:MyHardWare/Src/encoder.c ****  * @brief 编码器定时器初始化（根据硬件配置直接初始化）
 142:MyHardWare/Src/encoder.c ****  * @note  通过条件编译直接初始化对应的定时器，无需运行时判断
ARM GAS  C:\Users\asus\AppData\Local\Temp\ccRZZoZk.s 			page 6


 143:MyHardWare/Src/encoder.c ****  */
 144:MyHardWare/Src/encoder.c **** static void Encoder_TIM_Init(void) {
 145:MyHardWare/Src/encoder.c **** #ifdef QUAD_MOTOR_DRIVE
 146:MyHardWare/Src/encoder.c ****   // 四驱模式：初始化 TIM2, TIM3, TIM4, TIM5
 147:MyHardWare/Src/encoder.c **** 
 148:MyHardWare/Src/encoder.c ****   // 使能定时器时钟
 149:MyHardWare/Src/encoder.c ****   RCC_APB1PeriphClockCmd(RCC_APB1Periph_TIM2 | RCC_APB1Periph_TIM3 |
 150:MyHardWare/Src/encoder.c ****                              RCC_APB1Periph_TIM4 | RCC_APB1Periph_TIM5,
 151:MyHardWare/Src/encoder.c ****                          ENABLE);
 152:MyHardWare/Src/encoder.c **** 
 153:MyHardWare/Src/encoder.c ****   // TIM2 配置 (前右编码器)
 154:MyHardWare/Src/encoder.c ****   TIM_TimeBaseInitTypeDef TIM_TimeBaseStructure;
 155:MyHardWare/Src/encoder.c ****   TIM_TimeBaseStructure.TIM_Period = 65535;
 156:MyHardWare/Src/encoder.c ****   TIM_TimeBaseStructure.TIM_Prescaler = 0;
 157:MyHardWare/Src/encoder.c ****   TIM_TimeBaseStructure.TIM_ClockDivision = 0;
 158:MyHardWare/Src/encoder.c ****   TIM_TimeBaseStructure.TIM_CounterMode = TIM_CounterMode_Up;
 159:MyHardWare/Src/encoder.c ****   TIM_TimeBaseInit(TIM2, &TIM_TimeBaseStructure);
 160:MyHardWare/Src/encoder.c **** 
 161:MyHardWare/Src/encoder.c ****   // 输入捕获初始化结构体
 162:MyHardWare/Src/encoder.c ****   TIM_ICInitTypeDef TIM_IC_InitStructure;
 163:MyHardWare/Src/encoder.c ****   TIM_IC_InitStructure.TIM_Channel = TIM_Channel_1;
 164:MyHardWare/Src/encoder.c ****   TIM_IC_InitStructure.TIM_ICPolarity = TIM_ICPolarity_Rising;
 165:MyHardWare/Src/encoder.c ****   TIM_IC_InitStructure.TIM_ICSelection = TIM_ICSC_DIRECT;
 166:MyHardWare/Src/encoder.c ****   TIM_IC_InitStructure.TIM_ICPrescaler = TIM_IC_PSC_DIV1;
 167:MyHardWare/Src/encoder.c ****   TIM_IC_InitStructure.TIM_ICFilter = 0x05; // 滤波器设置
 168:MyHardWare/Src/encoder.c ****   TIM_IC_Init(TIM2, &TIM_IC_InitStructure);
 169:MyHardWare/Src/encoder.c **** 
 170:MyHardWare/Src/encoder.c ****   TIM_IC_InitStructure.TIM_Channel = TIM_Channel_2;
 171:MyHardWare/Src/encoder.c ****   TIM_IC_Init(TIM2, &TIM_IC_InitStructure);
 172:MyHardWare/Src/encoder.c **** 
 173:MyHardWare/Src/encoder.c ****   // 配置编码器接口
 174:MyHardWare/Src/encoder.c ****   TIM_EncoderInterfaceConfig(TIM2, TIM_EncoderMode_TI12, TIM_ICPolarity_Rising,
 175:MyHardWare/Src/encoder.c ****                              TIM_ICPolarity_Rising);
 176:MyHardWare/Src/encoder.c ****   TIM_Cmd(TIM2, ENABLE);
 177:MyHardWare/Src/encoder.c **** 
 178:MyHardWare/Src/encoder.c ****   // TIM3 配置 (前左编码器)
 179:MyHardWare/Src/encoder.c ****   TIM_TimeBaseInit(TIM3, &TIM_TimeBaseStructure);
 180:MyHardWare/Src/encoder.c **** 
 181:MyHardWare/Src/encoder.c ****   TIM_IC_InitStructure.TIM_Channel = TIM_Channel_1;
 182:MyHardWare/Src/encoder.c ****   TIM_IC_Init(TIM3, &TIM_IC_InitStructure);
 183:MyHardWare/Src/encoder.c **** 
 184:MyHardWare/Src/encoder.c ****   TIM_IC_InitStructure.TIM_Channel = TIM_Channel_2;
 185:MyHardWare/Src/encoder.c ****   TIM_IC_Init(TIM3, &TIM_IC_InitStructure);
 186:MyHardWare/Src/encoder.c **** 
 187:MyHardWare/Src/encoder.c ****   TIM_EncoderInterfaceConfig(TIM3, TIM_EncoderMode_TI12, TIM_ICPolarity_Rising,
 188:MyHardWare/Src/encoder.c ****                              TIM_ICPolarity_Rising);
 189:MyHardWare/Src/encoder.c ****   TIM_Cmd(TIM3, ENABLE);
 190:MyHardWare/Src/encoder.c **** 
 191:MyHardWare/Src/encoder.c ****   // TIM4 配置 (后右编码器)
 192:MyHardWare/Src/encoder.c ****   TIM_TimeBaseInit(TIM4, &TIM_TimeBaseStructure);
 193:MyHardWare/Src/encoder.c **** 
 194:MyHardWare/Src/encoder.c ****   TIM_IC_InitStructure.TIM_Channel = TIM_Channel_1;
 195:MyHardWare/Src/encoder.c ****   TIM_IC_Init(TIM4, &TIM_IC_InitStructure);
 196:MyHardWare/Src/encoder.c **** 
 197:MyHardWare/Src/encoder.c ****   TIM_IC_InitStructure.TIM_Channel = TIM_Channel_2;
 198:MyHardWare/Src/encoder.c ****   TIM_IC_Init(TIM4, &TIM_IC_InitStructure);
 199:MyHardWare/Src/encoder.c **** 
ARM GAS  C:\Users\asus\AppData\Local\Temp\ccRZZoZk.s 			page 7


 200:MyHardWare/Src/encoder.c ****   TIM_EncoderInterfaceConfig(TIM4, TIM_EncoderMode_TI12, TIM_ICPolarity_Rising,
 201:MyHardWare/Src/encoder.c ****                              TIM_ICPolarity_Rising);
 202:MyHardWare/Src/encoder.c ****   TIM_Cmd(TIM4, ENABLE);
 203:MyHardWare/Src/encoder.c **** 
 204:MyHardWare/Src/encoder.c ****   // TIM5 配置 (后左编码器)
 205:MyHardWare/Src/encoder.c ****   TIM_TimeBaseInit(TIM5, &TIM_TimeBaseStructure);
 206:MyHardWare/Src/encoder.c **** 
 207:MyHardWare/Src/encoder.c ****   TIM_IC_InitStructure.TIM_Channel = TIM_Channel_1;
 208:MyHardWare/Src/encoder.c ****   TIM_IC_Init(TIM5, &TIM_IC_InitStructure);
 209:MyHardWare/Src/encoder.c **** 
 210:MyHardWare/Src/encoder.c ****   TIM_IC_InitStructure.TIM_Channel = TIM_Channel_2;
 211:MyHardWare/Src/encoder.c ****   TIM_IC_Init(TIM5, &TIM_IC_InitStructure);
 212:MyHardWare/Src/encoder.c **** 
 213:MyHardWare/Src/encoder.c ****   TIM_EncoderInterfaceConfig(TIM5, TIM_EncoderMode_TI12, TIM_ICPolarity_Rising,
 214:MyHardWare/Src/encoder.c ****                              TIM_ICPolarity_Rising);
 215:MyHardWare/Src/encoder.c ****   TIM_Cmd(TIM5, ENABLE);
 216:MyHardWare/Src/encoder.c **** 
 217:MyHardWare/Src/encoder.c **** #else
 218:MyHardWare/Src/encoder.c ****   // 双驱模式：只初始化 TIM2, TIM5
 219:MyHardWare/Src/encoder.c **** 
 220:MyHardWare/Src/encoder.c ****   // 使能定时器时钟
 221:MyHardWare/Src/encoder.c ****   RCC_APB1PeriphClockCmd(RCC_APB1Periph_TIM2 | RCC_APB1Periph_TIM5, ENABLE);
 222:MyHardWare/Src/encoder.c **** 
 223:MyHardWare/Src/encoder.c ****   // TIM2 配置 (右编码器)
 224:MyHardWare/Src/encoder.c ****   TIM_TimeBaseInitTypeDef TIM_TimeBaseStructure;
 225:MyHardWare/Src/encoder.c ****   TIM_TimeBaseStructure.TIM_Period = 200000;
 226:MyHardWare/Src/encoder.c ****   TIM_TimeBaseStructure.TIM_Prescaler = 0;
 227:MyHardWare/Src/encoder.c ****   TIM_TimeBaseStructure.TIM_ClockDivision = 0;
 228:MyHardWare/Src/encoder.c ****   TIM_TimeBaseStructure.TIM_CounterMode = TIM_CounterMode_Up;
 229:MyHardWare/Src/encoder.c ****   TIM_TimeBaseInit(TIM2, &TIM_TimeBaseStructure);
 230:MyHardWare/Src/encoder.c **** 
 231:MyHardWare/Src/encoder.c ****   // 输入捕获初始化结构体
 232:MyHardWare/Src/encoder.c ****   TIM_ICInitTypeDef TIM_IC_InitStructure;
 233:MyHardWare/Src/encoder.c ****   TIM_IC_InitStructure.TIM_Channel = TIM_Channel_1;
 234:MyHardWare/Src/encoder.c ****   TIM_IC_InitStructure.TIM_ICPolarity = TIM_ICPolarity_Rising;
 235:MyHardWare/Src/encoder.c ****   TIM_IC_InitStructure.TIM_ICSelection = TIM_ICSelection_DirectTI;
 236:MyHardWare/Src/encoder.c ****   TIM_IC_InitStructure.TIM_ICPrescaler = TIM_ICPSC_DIV1;
 237:MyHardWare/Src/encoder.c ****   TIM_IC_InitStructure.TIM_ICFilter = 0x05; // 滤波器设置
 238:MyHardWare/Src/encoder.c ****   TIM_ICInit(TIM2, &TIM_IC_InitStructure);
 239:MyHardWare/Src/encoder.c **** 
 240:MyHardWare/Src/encoder.c ****   TIM_IC_InitStructure.TIM_Channel = TIM_Channel_2;
 241:MyHardWare/Src/encoder.c ****   TIM_ICInit(TIM2, &TIM_IC_InitStructure);
 242:MyHardWare/Src/encoder.c **** 
 243:MyHardWare/Src/encoder.c ****   // 配置编码器接口
 244:MyHardWare/Src/encoder.c ****   TIM_EncoderInterfaceConfig(TIM2, TIM_EncoderMode_TI1, TIM_ICPolarity_Rising,
 245:MyHardWare/Src/encoder.c ****                              TIM_ICPolarity_Rising);
 246:MyHardWare/Src/encoder.c ****   TIM_Cmd(TIM2, ENABLE);
 247:MyHardWare/Src/encoder.c **** 
 248:MyHardWare/Src/encoder.c ****   // TIM5 配置 (左编码器)
 249:MyHardWare/Src/encoder.c ****   TIM_TimeBaseInit(TIM5, &TIM_TimeBaseStructure);
 250:MyHardWare/Src/encoder.c **** 
 251:MyHardWare/Src/encoder.c ****   TIM_IC_InitStructure.TIM_Channel = TIM_Channel_1;
 252:MyHardWare/Src/encoder.c ****   TIM_ICInit(TIM5, &TIM_IC_InitStructure);
 253:MyHardWare/Src/encoder.c **** 
 254:MyHardWare/Src/encoder.c ****   TIM_IC_InitStructure.TIM_Channel = TIM_Channel_2;
 255:MyHardWare/Src/encoder.c ****   TIM_ICInit(TIM5, &TIM_IC_InitStructure);
 256:MyHardWare/Src/encoder.c **** 
ARM GAS  C:\Users\asus\AppData\Local\Temp\ccRZZoZk.s 			page 8


 257:MyHardWare/Src/encoder.c ****   TIM_EncoderInterfaceConfig(TIM5, TIM_EncoderMode_TI1, TIM_ICPolarity_Rising,
 258:MyHardWare/Src/encoder.c ****                              TIM_ICPolarity_Rising);
 259:MyHardWare/Src/encoder.c ****   TIM_Cmd(TIM5, ENABLE);
 260:MyHardWare/Src/encoder.c **** #endif
 261:MyHardWare/Src/encoder.c ****   Encoder_Update();
 262:MyHardWare/Src/encoder.c **** }
 263:MyHardWare/Src/encoder.c **** 
 264:MyHardWare/Src/encoder.c **** void Encoder_Driver_Init(void) {
 265:MyHardWare/Src/encoder.c ****   Encoder_GPIO_Init();
 266:MyHardWare/Src/encoder.c ****   Encoder_TIM_Init();
 267:MyHardWare/Src/encoder.c **** }
 268:MyHardWare/Src/encoder.c **** 
 269:MyHardWare/Src/encoder.c **** /**
 270:MyHardWare/Src/encoder.c ****  * @brief 更新所有编码器的数据
 271:MyHardWare/Src/encoder.c ****  * @note  根据QUAD_MOTOR_DRIVE宏定义自动适配四驱/双驱模式
 272:MyHardWare/Src/encoder.c ****  *        在10ms控制循环中调用，实现所有编码器数据同步更新
 273:MyHardWare/Src/encoder.c ****  */
 274:MyHardWare/Src/encoder.c **** void Encoder_Update(void) {
 147              		.loc 1 274 27 is_stmt 1 view -0
 148              		.cfi_startproc
 149              		@ args = 0, pretend = 0, frame = 8
 150              		@ frame_needed = 0, uses_anonymous_args = 0
 151 0000 70B5     		push	{r4, r5, r6, lr}
 152              	.LCFI3:
 153              		.cfi_def_cfa_offset 16
 154              		.cfi_offset 4, -16
 155              		.cfi_offset 5, -12
 156              		.cfi_offset 6, -8
 157              		.cfi_offset 14, -4
 158 0002 82B0     		sub	sp, sp, #8
 159              	.LCFI4:
 160              		.cfi_def_cfa_offset 24
 275:MyHardWare/Src/encoder.c ****   // 获取当前时间戳（用于计算时间间隔）
 276:MyHardWare/Src/encoder.c ****   float dt_seconds = ENCODER_SAMPLE_PERIOD_MS / 1000.0f; // 转换为秒
 161              		.loc 1 276 3 view .LVU26
 162              	.LVL10:
 277:MyHardWare/Src/encoder.c **** 
 278:MyHardWare/Src/encoder.c **** #ifdef QUAD_MOTOR_DRIVE
 279:MyHardWare/Src/encoder.c ****   // 四驱模式：处理 4 个编码器
 280:MyHardWare/Src/encoder.c ****   Encoder_Class_t *encoders[] = {&Encoder_FR, &Encoder_FL, &Encoder_BR,
 281:MyHardWare/Src/encoder.c ****                                  &Encoder_BL};
 282:MyHardWare/Src/encoder.c ****   for (int i = 0; i < 4; i++) {
 283:MyHardWare/Src/encoder.c ****     Encoder_Class_t *instance = encoders[i];
 284:MyHardWare/Src/encoder.c **** 
 285:MyHardWare/Src/encoder.c ****     // 读取当前计数值
 286:MyHardWare/Src/encoder.c ****     int32_t current_count = (int32_t)TIM_GetCounter(instance->tim);
 287:MyHardWare/Src/encoder.c **** 
 288:MyHardWare/Src/encoder.c ****     // 计算增量并处理计数器溢出/下溢
 289:MyHardWare/Src/encoder.c ****     int32_t delta = current_count - instance->_data.last_count;
 290:MyHardWare/Src/encoder.c **** 
 291:MyHardWare/Src/encoder.c ****     // 检测是否发生溢出或下溢（ARR=65535）
 292:MyHardWare/Src/encoder.c ****     if (delta > 32767) {
 293:MyHardWare/Src/encoder.c ****       // 计数器从 65535 回绕到 0，需要减去 65536
 294:MyHardWare/Src/encoder.c ****       delta -= 65536;
 295:MyHardWare/Src/encoder.c ****     } else if (delta < -32767) {
 296:MyHardWare/Src/encoder.c ****       // 计数器从 0 回绕到 65535，需要加上 65536
 297:MyHardWare/Src/encoder.c ****       delta += 65536;
ARM GAS  C:\Users\asus\AppData\Local\Temp\ccRZZoZk.s 			page 9


 298:MyHardWare/Src/encoder.c ****     }
 299:MyHardWare/Src/encoder.c **** 
 300:MyHardWare/Src/encoder.c ****     // 更新数据结构
 301:MyHardWare/Src/encoder.c ****     instance->_data.count = current_count;
 302:MyHardWare/Src/encoder.c ****     instance->_data.delta_count = delta;
 303:MyHardWare/Src/encoder.c ****     instance->_data.last_count = current_count;
 304:MyHardWare/Src/encoder.c ****     instance->_data.total_count += delta;
 305:MyHardWare/Src/encoder.c **** 
 306:MyHardWare/Src/encoder.c ****     // 计算速度
 307:MyHardWare/Src/encoder.c ****     instance->_data.speed_rps = (float)delta / (float)ENCODER_PPR / dt_seconds;
 308:MyHardWare/Src/encoder.c ****     instance->_data.speed_rpm = instance->_data.speed_rps / RPM_TO_RPS;
 309:MyHardWare/Src/encoder.c ****     instance->_data.speed_rad_s = instance->_data.speed_rps * 6.28318f;
 310:MyHardWare/Src/encoder.c ****     instance->_data.speed_m_s =
 311:MyHardWare/Src/encoder.c ****         instance->_data.speed_rad_s * (instance->_data.wheel_diameter / 2.0f);
 312:MyHardWare/Src/encoder.c **** 
 313:MyHardWare/Src/encoder.c ****     // 更新总里程
 314:MyHardWare/Src/encoder.c ****     instance->_data.total_distance += instance->_data.speed_m_s * dt_seconds;
 315:MyHardWare/Src/encoder.c **** 
 316:MyHardWare/Src/encoder.c ****     // 判断方向
 317:MyHardWare/Src/encoder.c ****     if (delta > 0) {
 318:MyHardWare/Src/encoder.c ****       instance->_data.direction = ENCODER_DIR_FORWARD;
 319:MyHardWare/Src/encoder.c ****     } else if (delta < 0) {
 320:MyHardWare/Src/encoder.c ****       instance->_data.direction = ENCODER_DIR_BACKWARD;
 321:MyHardWare/Src/encoder.c ****     } else {
 322:MyHardWare/Src/encoder.c ****       instance->_data.direction = ENCODER_DIR_STOPPED;
 323:MyHardWare/Src/encoder.c ****     }
 324:MyHardWare/Src/encoder.c **** 
 325:MyHardWare/Src/encoder.c ****     // 更新时间戳
 326:MyHardWare/Src/encoder.c ****     instance->_data.last_update_time = current_time;
 327:MyHardWare/Src/encoder.c ****   }
 328:MyHardWare/Src/encoder.c **** #else
 329:MyHardWare/Src/encoder.c ****   // 双驱模式：处理 2 个编码器
 330:MyHardWare/Src/encoder.c ****   Encoder_Class_t *encoders[] = {&Encoder_Right, &Encoder_Left};
 163              		.loc 1 330 3 view .LVU27
 164              		.loc 1 330 20 is_stmt 0 view .LVU28
 165 0004 354B     		ldr	r3, .L16
 166 0006 93E80300 		ldm	r3, {r0, r1}
 167 000a 02AB     		add	r3, sp, #8
 168 000c 03E90300 		stmdb	r3, {r0, r1}
 331:MyHardWare/Src/encoder.c ****   for (int i = 0; i < 2; i++) {
 169              		.loc 1 331 3 is_stmt 1 view .LVU29
 170              	.LBB2:
 171              		.loc 1 331 8 view .LVU30
 172              	.LVL11:
 173              		.loc 1 331 12 is_stmt 0 view .LVU31
 174 0010 0025     		movs	r5, #0
 175              		.loc 1 331 3 view .LVU32
 176 0012 40E0     		b	.L6
 177              	.LVL12:
 178              	.L7:
 179              	.LBB3:
 332:MyHardWare/Src/encoder.c ****     uint32_t current_time = GetSysTick();
 333:MyHardWare/Src/encoder.c ****     Encoder_Class_t *instance = encoders[i];
 334:MyHardWare/Src/encoder.c **** 
 335:MyHardWare/Src/encoder.c ****     // 读取当前计数值 (支持 32 位定时器)
 336:MyHardWare/Src/encoder.c ****     int32_t current_count = (int32_t)TIM_GetCounter(instance->tim);
 337:MyHardWare/Src/encoder.c **** 
ARM GAS  C:\Users\asus\AppData\Local\Temp\ccRZZoZk.s 			page 10


 338:MyHardWare/Src/encoder.c ****     // 计算增量并处理计数器溢出/下溢
 339:MyHardWare/Src/encoder.c ****     int32_t delta = current_count - instance->_data.last_count;
 340:MyHardWare/Src/encoder.c **** 
 341:MyHardWare/Src/encoder.c ****     // 检测是否发生溢出或下溢（ARR=200000）
 342:MyHardWare/Src/encoder.c ****     if (delta > 100000) {
 343:MyHardWare/Src/encoder.c ****       // 计数器从 200000 回绕到 0，需要减去 200001
 344:MyHardWare/Src/encoder.c ****       delta -= 200001;
 345:MyHardWare/Src/encoder.c ****     } else if (delta < -100000) {
 180              		.loc 1 345 12 is_stmt 1 view .LVU33
 181              		.loc 1 345 15 is_stmt 0 view .LVU34
 182 0014 324A     		ldr	r2, .L16+4
 183 0016 9342     		cmp	r3, r2
 184 0018 03DA     		bge	.L8
 346:MyHardWare/Src/encoder.c ****       // 计数器从 0 回绕到 200000，需要加上 200001
 347:MyHardWare/Src/encoder.c ****       delta += 200001;
 185              		.loc 1 347 7 is_stmt 1 view .LVU35
 186              		.loc 1 347 13 is_stmt 0 view .LVU36
 187 001a 03F54333 		add	r3, r3, #199680
 188              	.LVL13:
 189              		.loc 1 347 13 view .LVU37
 190 001e 03F24113 		addw	r3, r3, #321
 191              	.LVL14:
 192              	.L8:
 348:MyHardWare/Src/encoder.c ****     }
 349:MyHardWare/Src/encoder.c **** 
 350:MyHardWare/Src/encoder.c ****     // 更新数据结构
 351:MyHardWare/Src/encoder.c ****     instance->_data.last_count = current_count;
 193              		.loc 1 351 5 is_stmt 1 view .LVU38
 194              		.loc 1 351 32 is_stmt 0 view .LVU39
 195 0022 2060     		str	r0, [r4]
 352:MyHardWare/Src/encoder.c ****     instance->_data.delta_count = delta;
 196              		.loc 1 352 5 is_stmt 1 view .LVU40
 197              		.loc 1 352 33 is_stmt 0 view .LVU41
 198 0024 6360     		str	r3, [r4, #4]
 353:MyHardWare/Src/encoder.c ****     instance->_data.total_count += delta;
 199              		.loc 1 353 5 is_stmt 1 view .LVU42
 200              		.loc 1 353 20 is_stmt 0 view .LVU43
 201 0026 A269     		ldr	r2, [r4, #24]
 202              		.loc 1 353 33 view .LVU44
 203 0028 1A44     		add	r2, r2, r3
 204 002a A261     		str	r2, [r4, #24]
 354:MyHardWare/Src/encoder.c **** 
 355:MyHardWare/Src/encoder.c ****     // // 计算速度
 356:MyHardWare/Src/encoder.c ****     // instance->_data.speed_rps = (float)delta / (float)ENCODER_PPR / dt_seconds;
 357:MyHardWare/Src/encoder.c ****     // instance->_data.speed_rpm = instance->_data.speed_rps / RPM_TO_RPS;
 358:MyHardWare/Src/encoder.c ****     // instance->_data.speed_rad_s = instance->_data.speed_rps * 6.28318f;
 359:MyHardWare/Src/encoder.c ****     // instance->_data.speed_m_s =
 360:MyHardWare/Src/encoder.c ****     //     instance->_data.speed_rad_s * (instance->_data.wheel_diameter / 2.0f);
 361:MyHardWare/Src/encoder.c **** 
 362:MyHardWare/Src/encoder.c ****     // // 更新总里程
 363:MyHardWare/Src/encoder.c ****     // instance->_data.total_distance += instance->_data.speed_m_s * dt_seconds;
 364:MyHardWare/Src/encoder.c **** 
 365:MyHardWare/Src/encoder.c **** 
 366:MyHardWare/Src/encoder.c **** 
 367:MyHardWare/Src/encoder.c **** 
 368:MyHardWare/Src/encoder.c **** 
 369:MyHardWare/Src/encoder.c ****     instance->_data.speed_rps = (float)delta / 28000.0f / dt_seconds;
ARM GAS  C:\Users\asus\AppData\Local\Temp\ccRZZoZk.s 			page 11


 205              		.loc 1 369 5 is_stmt 1 view .LVU45
 206              		.loc 1 369 33 is_stmt 0 view .LVU46
 207 002c 07EE903A 		vmov	s15, r3	@ int
 208 0030 F8EEE76A 		vcvt.f32.s32	s13, s15
 209              		.loc 1 369 46 view .LVU47
 210 0034 DFED2B7A 		vldr.32	s15, .L16+8
 211 0038 86EEA77A 		vdiv.f32	s14, s13, s15
 212              		.loc 1 369 57 view .LVU48
 213 003c DFED2A6A 		vldr.32	s13, .L16+12
 214 0040 C7EE267A 		vdiv.f32	s15, s14, s13
 215              		.loc 1 369 31 view .LVU49
 216 0044 C4ED037A 		vstr.32	s15, [r4, #12]
 370:MyHardWare/Src/encoder.c **** 
 371:MyHardWare/Src/encoder.c ****     instance->_data.speed_rpm = instance->_data.speed_rps / RPM_TO_RPS;
 217              		.loc 1 371 5 is_stmt 1 view .LVU50
 218              		.loc 1 371 59 is_stmt 0 view .LVU51
 219 0048 9FED286A 		vldr.32	s12, .L16+16
 220 004c C7EE866A 		vdiv.f32	s13, s15, s12
 221              		.loc 1 371 31 view .LVU52
 222 0050 C4ED026A 		vstr.32	s13, [r4, #8]
 372:MyHardWare/Src/encoder.c **** 
 373:MyHardWare/Src/encoder.c ****     instance->_data.speed_rad_s = instance->_data.speed_rps * 6.28318f;
 223              		.loc 1 373 5 is_stmt 1 view .LVU53
 224              		.loc 1 373 61 is_stmt 0 view .LVU54
 225 0054 DFED266A 		vldr.32	s13, .L16+20
 226 0058 67EEA67A 		vmul.f32	s15, s15, s13
 227              		.loc 1 373 33 view .LVU55
 228 005c C4ED047A 		vstr.32	s15, [r4, #16]
 374:MyHardWare/Src/encoder.c **** 
 375:MyHardWare/Src/encoder.c ****     instance->_data.speed_m_s =instance->_data.speed_rad_s * (0.065f / 2.0f);
 229              		.loc 1 375 5 is_stmt 1 view .LVU56
 230              		.loc 1 375 60 is_stmt 0 view .LVU57
 231 0060 DFED246A 		vldr.32	s13, .L16+24
 232 0064 67EEA67A 		vmul.f32	s15, s15, s13
 233              		.loc 1 375 31 view .LVU58
 234 0068 C4ED057A 		vstr.32	s15, [r4, #20]
 376:MyHardWare/Src/encoder.c **** 
 377:MyHardWare/Src/encoder.c ****     // 更新总里程
 378:MyHardWare/Src/encoder.c ****     // instance->_data.total_distance += instance->_data.speed_m_s * dt_seconds;
 379:MyHardWare/Src/encoder.c ****     instance->_data.total_distance += (float)delta / 28000.0f * 3.14159f * 0.065f;
 235              		.loc 1 379 5 is_stmt 1 view .LVU59
 236              		.loc 1 379 20 is_stmt 0 view .LVU60
 237 006c D4ED077A 		vldr.32	s15, [r4, #28]
 238              		.loc 1 379 63 view .LVU61
 239 0070 DFED216A 		vldr.32	s13, .L16+28
 240 0074 27EE267A 		vmul.f32	s14, s14, s13
 241              		.loc 1 379 74 view .LVU62
 242 0078 DFED206A 		vldr.32	s13, .L16+32
 243 007c 27EE267A 		vmul.f32	s14, s14, s13
 244              		.loc 1 379 36 view .LVU63
 245 0080 77EE877A 		vadd.f32	s15, s15, s14
 246 0084 C4ED077A 		vstr.32	s15, [r4, #28]
 380:MyHardWare/Src/encoder.c **** 
 381:MyHardWare/Src/encoder.c **** 
 382:MyHardWare/Src/encoder.c **** 
 383:MyHardWare/Src/encoder.c **** 
 384:MyHardWare/Src/encoder.c **** 
ARM GAS  C:\Users\asus\AppData\Local\Temp\ccRZZoZk.s 			page 12


 385:MyHardWare/Src/encoder.c **** 
 386:MyHardWare/Src/encoder.c **** 
 387:MyHardWare/Src/encoder.c ****     // 判断方向
 388:MyHardWare/Src/encoder.c ****     if (delta > 0) {
 247              		.loc 1 388 5 is_stmt 1 view .LVU64
 248              		.loc 1 388 8 is_stmt 0 view .LVU65
 249 0088 002B     		cmp	r3, #0
 250 008a 1BDD     		ble	.L9
 389:MyHardWare/Src/encoder.c ****       instance->_data.direction = ENCODER_DIR_FORWARD;
 251              		.loc 1 389 7 is_stmt 1 view .LVU66
 252              		.loc 1 389 33 is_stmt 0 view .LVU67
 253 008c 0123     		movs	r3, #1
 254              	.LVL15:
 255              		.loc 1 389 33 view .LVU68
 256 008e 84F82030 		strb	r3, [r4, #32]
 257              	.L10:
 390:MyHardWare/Src/encoder.c ****     } else if (delta < 0) {
 391:MyHardWare/Src/encoder.c ****       instance->_data.direction = ENCODER_DIR_BACKWARD;
 392:MyHardWare/Src/encoder.c ****     } else {
 393:MyHardWare/Src/encoder.c ****       instance->_data.direction = ENCODER_DIR_STOPPED;
 394:MyHardWare/Src/encoder.c ****     }
 395:MyHardWare/Src/encoder.c **** 
 396:MyHardWare/Src/encoder.c ****     // 更新时间戳
 397:MyHardWare/Src/encoder.c ****     instance->_data.last_update_time = current_time;
 258              		.loc 1 397 5 is_stmt 1 view .LVU69
 259              		.loc 1 397 38 is_stmt 0 view .LVU70
 260 0092 E662     		str	r6, [r4, #44]
 261              	.LBE3:
 331:MyHardWare/Src/encoder.c ****     uint32_t current_time = GetSysTick();
 262              		.loc 1 331 27 is_stmt 1 discriminator 2 view .LVU71
 263 0094 0135     		adds	r5, r5, #1
 264              	.LVL16:
 265              	.L6:
 331:MyHardWare/Src/encoder.c ****     uint32_t current_time = GetSysTick();
 266              		.loc 1 331 21 discriminator 1 view .LVU72
 267 0096 012D     		cmp	r5, #1
 268 0098 1EDC     		bgt	.L14
 269              	.LBB4:
 332:MyHardWare/Src/encoder.c ****     Encoder_Class_t *instance = encoders[i];
 270              		.loc 1 332 5 view .LVU73
 332:MyHardWare/Src/encoder.c ****     Encoder_Class_t *instance = encoders[i];
 271              		.loc 1 332 29 is_stmt 0 view .LVU74
 272 009a FFF7FEFF 		bl	GetSysTick
 273              	.LVL17:
 274 009e 0646     		mov	r6, r0
 275              	.LVL18:
 333:MyHardWare/Src/encoder.c **** 
 276              		.loc 1 333 5 is_stmt 1 view .LVU75
 333:MyHardWare/Src/encoder.c **** 
 277              		.loc 1 333 22 is_stmt 0 view .LVU76
 278 00a0 02AB     		add	r3, sp, #8
 279 00a2 03EB8503 		add	r3, r3, r5, lsl #2
 280 00a6 53F8084C 		ldr	r4, [r3, #-8]
 281              	.LVL19:
 336:MyHardWare/Src/encoder.c **** 
 282              		.loc 1 336 5 is_stmt 1 view .LVU77
 336:MyHardWare/Src/encoder.c **** 
ARM GAS  C:\Users\asus\AppData\Local\Temp\ccRZZoZk.s 			page 13


 283              		.loc 1 336 38 is_stmt 0 view .LVU78
 284 00aa 606B     		ldr	r0, [r4, #52]
 285              	.LVL20:
 336:MyHardWare/Src/encoder.c **** 
 286              		.loc 1 336 38 view .LVU79
 287 00ac FFF7FEFF 		bl	TIM_GetCounter
 288              	.LVL21:
 339:MyHardWare/Src/encoder.c **** 
 289              		.loc 1 339 5 is_stmt 1 view .LVU80
 339:MyHardWare/Src/encoder.c **** 
 290              		.loc 1 339 52 is_stmt 0 view .LVU81
 291 00b0 2368     		ldr	r3, [r4]
 339:MyHardWare/Src/encoder.c **** 
 292              		.loc 1 339 13 view .LVU82
 293 00b2 C31A     		subs	r3, r0, r3
 294              	.LVL22:
 342:MyHardWare/Src/encoder.c ****       // 计数器从 200000 回绕到 0，需要减去 200001
 295              		.loc 1 342 5 is_stmt 1 view .LVU83
 342:MyHardWare/Src/encoder.c ****       // 计数器从 200000 回绕到 0，需要减去 200001
 296              		.loc 1 342 8 is_stmt 0 view .LVU84
 297 00b4 124A     		ldr	r2, .L16+36
 298 00b6 9342     		cmp	r3, r2
 299 00b8 ACDD     		ble	.L7
 344:MyHardWare/Src/encoder.c ****     } else if (delta < -100000) {
 300              		.loc 1 344 7 is_stmt 1 view .LVU85
 344:MyHardWare/Src/encoder.c ****     } else if (delta < -100000) {
 301              		.loc 1 344 13 is_stmt 0 view .LVU86
 302 00ba A3F54333 		sub	r3, r3, #199680
 303              	.LVL23:
 344:MyHardWare/Src/encoder.c ****     } else if (delta < -100000) {
 304              		.loc 1 344 13 view .LVU87
 305 00be A3F24113 		subw	r3, r3, #321
 306              	.LVL24:
 344:MyHardWare/Src/encoder.c ****     } else if (delta < -100000) {
 307              		.loc 1 344 13 view .LVU88
 308 00c2 AEE7     		b	.L8
 309              	.L9:
 390:MyHardWare/Src/encoder.c ****       instance->_data.direction = ENCODER_DIR_BACKWARD;
 310              		.loc 1 390 12 is_stmt 1 view .LVU89
 390:MyHardWare/Src/encoder.c ****       instance->_data.direction = ENCODER_DIR_BACKWARD;
 311              		.loc 1 390 15 is_stmt 0 view .LVU90
 312 00c4 002B     		cmp	r3, #0
 313 00c6 03DB     		blt	.L15
 393:MyHardWare/Src/encoder.c ****     }
 314              		.loc 1 393 7 is_stmt 1 view .LVU91
 393:MyHardWare/Src/encoder.c ****     }
 315              		.loc 1 393 33 is_stmt 0 view .LVU92
 316 00c8 0023     		movs	r3, #0
 317              	.LVL25:
 393:MyHardWare/Src/encoder.c ****     }
 318              		.loc 1 393 33 view .LVU93
 319 00ca 84F82030 		strb	r3, [r4, #32]
 320 00ce E0E7     		b	.L10
 321              	.LVL26:
 322              	.L15:
 391:MyHardWare/Src/encoder.c ****     } else {
 323              		.loc 1 391 7 is_stmt 1 view .LVU94
ARM GAS  C:\Users\asus\AppData\Local\Temp\ccRZZoZk.s 			page 14


 391:MyHardWare/Src/encoder.c ****     } else {
 324              		.loc 1 391 33 is_stmt 0 view .LVU95
 325 00d0 0223     		movs	r3, #2
 326              	.LVL27:
 391:MyHardWare/Src/encoder.c ****     } else {
 327              		.loc 1 391 33 view .LVU96
 328 00d2 84F82030 		strb	r3, [r4, #32]
 329 00d6 DCE7     		b	.L10
 330              	.LVL28:
 331              	.L14:
 391:MyHardWare/Src/encoder.c ****     } else {
 332              		.loc 1 391 33 view .LVU97
 333              	.LBE4:
 334              	.LBE2:
 398:MyHardWare/Src/encoder.c ****   }
 399:MyHardWare/Src/encoder.c **** #endif
 400:MyHardWare/Src/encoder.c **** }
 335              		.loc 1 400 1 view .LVU98
 336 00d8 02B0     		add	sp, sp, #8
 337              	.LCFI5:
 338              		.cfi_def_cfa_offset 16
 339              		@ sp needed
 340 00da 70BD     		pop	{r4, r5, r6, pc}
 341              	.LVL29:
 342              	.L17:
 343              		.loc 1 400 1 view .LVU99
 344              		.align	2
 345              	.L16:
 346 00dc 00000000 		.word	.LANCHOR0
 347 00e0 6079FEFF 		.word	-100000
 348 00e4 00C0DA46 		.word	1188741120
 349 00e8 CDCCCC3D 		.word	1036831949
 350 00ec 8988883C 		.word	1015580809
 351 00f0 D00FC940 		.word	1086918608
 352 00f4 B81E053D 		.word	1023745720
 353 00f8 D00F4940 		.word	1078530000
 354 00fc B81E853D 		.word	1032134328
 355 0100 A0860100 		.word	100000
 356              		.cfi_endproc
 357              	.LFE126:
 359              		.section	.text.Encoder_TIM_Init,"ax",%progbits
 360              		.align	1
 361              		.syntax unified
 362              		.thumb
 363              		.thumb_func
 365              	Encoder_TIM_Init:
 366              	.LFB124:
 144:MyHardWare/Src/encoder.c **** #ifdef QUAD_MOTOR_DRIVE
 367              		.loc 1 144 36 is_stmt 1 view -0
 368              		.cfi_startproc
 369              		@ args = 0, pretend = 0, frame = 24
 370              		@ frame_needed = 0, uses_anonymous_args = 0
 371 0000 F0B5     		push	{r4, r5, r6, r7, lr}
 372              	.LCFI6:
 373              		.cfi_def_cfa_offset 20
 374              		.cfi_offset 4, -20
 375              		.cfi_offset 5, -16
ARM GAS  C:\Users\asus\AppData\Local\Temp\ccRZZoZk.s 			page 15


 376              		.cfi_offset 6, -12
 377              		.cfi_offset 7, -8
 378              		.cfi_offset 14, -4
 379 0002 87B0     		sub	sp, sp, #28
 380              	.LCFI7:
 381              		.cfi_def_cfa_offset 48
 221:MyHardWare/Src/encoder.c **** 
 382              		.loc 1 221 3 view .LVU101
 383 0004 0121     		movs	r1, #1
 384 0006 0920     		movs	r0, #9
 385 0008 FFF7FEFF 		bl	RCC_APB1PeriphClockCmd
 386              	.LVL30:
 224:MyHardWare/Src/encoder.c ****   TIM_TimeBaseStructure.TIM_Period = 200000;
 387              		.loc 1 224 3 view .LVU102
 225:MyHardWare/Src/encoder.c ****   TIM_TimeBaseStructure.TIM_Prescaler = 0;
 388              		.loc 1 225 3 view .LVU103
 225:MyHardWare/Src/encoder.c ****   TIM_TimeBaseStructure.TIM_Prescaler = 0;
 389              		.loc 1 225 36 is_stmt 0 view .LVU104
 390 000c 284B     		ldr	r3, .L20
 391 000e 0493     		str	r3, [sp, #16]
 226:MyHardWare/Src/encoder.c ****   TIM_TimeBaseStructure.TIM_ClockDivision = 0;
 392              		.loc 1 226 3 is_stmt 1 view .LVU105
 226:MyHardWare/Src/encoder.c ****   TIM_TimeBaseStructure.TIM_ClockDivision = 0;
 393              		.loc 1 226 39 is_stmt 0 view .LVU106
 394 0010 0024     		movs	r4, #0
 395 0012 ADF80C40 		strh	r4, [sp, #12]	@ movhi
 227:MyHardWare/Src/encoder.c ****   TIM_TimeBaseStructure.TIM_CounterMode = TIM_CounterMode_Up;
 396              		.loc 1 227 3 is_stmt 1 view .LVU107
 227:MyHardWare/Src/encoder.c ****   TIM_TimeBaseStructure.TIM_CounterMode = TIM_CounterMode_Up;
 397              		.loc 1 227 43 is_stmt 0 view .LVU108
 398 0016 ADF81440 		strh	r4, [sp, #20]	@ movhi
 228:MyHardWare/Src/encoder.c ****   TIM_TimeBaseInit(TIM2, &TIM_TimeBaseStructure);
 399              		.loc 1 228 3 is_stmt 1 view .LVU109
 228:MyHardWare/Src/encoder.c ****   TIM_TimeBaseInit(TIM2, &TIM_TimeBaseStructure);
 400              		.loc 1 228 41 is_stmt 0 view .LVU110
 401 001a ADF80E40 		strh	r4, [sp, #14]	@ movhi
 229:MyHardWare/Src/encoder.c **** 
 402              		.loc 1 229 3 is_stmt 1 view .LVU111
 403 001e 03A9     		add	r1, sp, #12
 404 0020 4FF08040 		mov	r0, #1073741824
 405 0024 FFF7FEFF 		bl	TIM_TimeBaseInit
 406              	.LVL31:
 232:MyHardWare/Src/encoder.c ****   TIM_IC_InitStructure.TIM_Channel = TIM_Channel_1;
 407              		.loc 1 232 3 view .LVU112
 233:MyHardWare/Src/encoder.c ****   TIM_IC_InitStructure.TIM_ICPolarity = TIM_ICPolarity_Rising;
 408              		.loc 1 233 3 view .LVU113
 233:MyHardWare/Src/encoder.c ****   TIM_IC_InitStructure.TIM_ICPolarity = TIM_ICPolarity_Rising;
 409              		.loc 1 233 36 is_stmt 0 view .LVU114
 410 0028 ADF80040 		strh	r4, [sp]	@ movhi
 234:MyHardWare/Src/encoder.c ****   TIM_IC_InitStructure.TIM_ICSelection = TIM_ICSelection_DirectTI;
 411              		.loc 1 234 3 is_stmt 1 view .LVU115
 234:MyHardWare/Src/encoder.c ****   TIM_IC_InitStructure.TIM_ICSelection = TIM_ICSelection_DirectTI;
 412              		.loc 1 234 39 is_stmt 0 view .LVU116
 413 002c ADF80240 		strh	r4, [sp, #2]	@ movhi
 235:MyHardWare/Src/encoder.c ****   TIM_IC_InitStructure.TIM_ICPrescaler = TIM_ICPSC_DIV1;
 414              		.loc 1 235 3 is_stmt 1 view .LVU117
 235:MyHardWare/Src/encoder.c ****   TIM_IC_InitStructure.TIM_ICPrescaler = TIM_ICPSC_DIV1;
ARM GAS  C:\Users\asus\AppData\Local\Temp\ccRZZoZk.s 			page 16


 415              		.loc 1 235 40 is_stmt 0 view .LVU118
 416 0030 0126     		movs	r6, #1
 417 0032 ADF80460 		strh	r6, [sp, #4]	@ movhi
 236:MyHardWare/Src/encoder.c ****   TIM_IC_InitStructure.TIM_ICFilter = 0x05; // 滤波器设置
 418              		.loc 1 236 3 is_stmt 1 view .LVU119
 236:MyHardWare/Src/encoder.c ****   TIM_IC_InitStructure.TIM_ICFilter = 0x05; // 滤波器设置
 419              		.loc 1 236 40 is_stmt 0 view .LVU120
 420 0036 ADF80640 		strh	r4, [sp, #6]	@ movhi
 237:MyHardWare/Src/encoder.c ****   TIM_ICInit(TIM2, &TIM_IC_InitStructure);
 421              		.loc 1 237 3 is_stmt 1 view .LVU121
 237:MyHardWare/Src/encoder.c ****   TIM_ICInit(TIM2, &TIM_IC_InitStructure);
 422              		.loc 1 237 37 is_stmt 0 view .LVU122
 423 003a 0523     		movs	r3, #5
 424 003c ADF80830 		strh	r3, [sp, #8]	@ movhi
 238:MyHardWare/Src/encoder.c **** 
 425              		.loc 1 238 3 is_stmt 1 view .LVU123
 426 0040 6946     		mov	r1, sp
 427 0042 4FF08040 		mov	r0, #1073741824
 428 0046 FFF7FEFF 		bl	TIM_ICInit
 429              	.LVL32:
 240:MyHardWare/Src/encoder.c ****   TIM_ICInit(TIM2, &TIM_IC_InitStructure);
 430              		.loc 1 240 3 view .LVU124
 240:MyHardWare/Src/encoder.c ****   TIM_ICInit(TIM2, &TIM_IC_InitStructure);
 431              		.loc 1 240 36 is_stmt 0 view .LVU125
 432 004a 0427     		movs	r7, #4
 433 004c ADF80070 		strh	r7, [sp]	@ movhi
 241:MyHardWare/Src/encoder.c **** 
 434              		.loc 1 241 3 is_stmt 1 view .LVU126
 435 0050 6946     		mov	r1, sp
 436 0052 4FF08040 		mov	r0, #1073741824
 437 0056 FFF7FEFF 		bl	TIM_ICInit
 438              	.LVL33:
 244:MyHardWare/Src/encoder.c ****                              TIM_ICPolarity_Rising);
 439              		.loc 1 244 3 view .LVU127
 440 005a 2346     		mov	r3, r4
 441 005c 2246     		mov	r2, r4
 442 005e 3146     		mov	r1, r6
 443 0060 4FF08040 		mov	r0, #1073741824
 444 0064 FFF7FEFF 		bl	TIM_EncoderInterfaceConfig
 445              	.LVL34:
 246:MyHardWare/Src/encoder.c **** 
 446              		.loc 1 246 3 view .LVU128
 447 0068 3146     		mov	r1, r6
 448 006a 4FF08040 		mov	r0, #1073741824
 449 006e FFF7FEFF 		bl	TIM_Cmd
 450              	.LVL35:
 249:MyHardWare/Src/encoder.c **** 
 451              		.loc 1 249 3 view .LVU129
 452 0072 104D     		ldr	r5, .L20+4
 453 0074 03A9     		add	r1, sp, #12
 454 0076 2846     		mov	r0, r5
 455 0078 FFF7FEFF 		bl	TIM_TimeBaseInit
 456              	.LVL36:
 251:MyHardWare/Src/encoder.c ****   TIM_ICInit(TIM5, &TIM_IC_InitStructure);
 457              		.loc 1 251 3 view .LVU130
 251:MyHardWare/Src/encoder.c ****   TIM_ICInit(TIM5, &TIM_IC_InitStructure);
 458              		.loc 1 251 36 is_stmt 0 view .LVU131
ARM GAS  C:\Users\asus\AppData\Local\Temp\ccRZZoZk.s 			page 17


 459 007c ADF80040 		strh	r4, [sp]	@ movhi
 252:MyHardWare/Src/encoder.c **** 
 460              		.loc 1 252 3 is_stmt 1 view .LVU132
 461 0080 6946     		mov	r1, sp
 462 0082 2846     		mov	r0, r5
 463 0084 FFF7FEFF 		bl	TIM_ICInit
 464              	.LVL37:
 254:MyHardWare/Src/encoder.c ****   TIM_ICInit(TIM5, &TIM_IC_InitStructure);
 465              		.loc 1 254 3 view .LVU133
 254:MyHardWare/Src/encoder.c ****   TIM_ICInit(TIM5, &TIM_IC_InitStructure);
 466              		.loc 1 254 36 is_stmt 0 view .LVU134
 467 0088 ADF80070 		strh	r7, [sp]	@ movhi
 255:MyHardWare/Src/encoder.c **** 
 468              		.loc 1 255 3 is_stmt 1 view .LVU135
 469 008c 6946     		mov	r1, sp
 470 008e 2846     		mov	r0, r5
 471 0090 FFF7FEFF 		bl	TIM_ICInit
 472              	.LVL38:
 257:MyHardWare/Src/encoder.c ****                              TIM_ICPolarity_Rising);
 473              		.loc 1 257 3 view .LVU136
 474 0094 2346     		mov	r3, r4
 475 0096 2246     		mov	r2, r4
 476 0098 3146     		mov	r1, r6
 477 009a 2846     		mov	r0, r5
 478 009c FFF7FEFF 		bl	TIM_EncoderInterfaceConfig
 479              	.LVL39:
 259:MyHardWare/Src/encoder.c **** #endif
 480              		.loc 1 259 3 view .LVU137
 481 00a0 3146     		mov	r1, r6
 482 00a2 2846     		mov	r0, r5
 483 00a4 FFF7FEFF 		bl	TIM_Cmd
 484              	.LVL40:
 261:MyHardWare/Src/encoder.c **** }
 485              		.loc 1 261 3 view .LVU138
 486 00a8 FFF7FEFF 		bl	Encoder_Update
 487              	.LVL41:
 262:MyHardWare/Src/encoder.c **** 
 488              		.loc 1 262 1 is_stmt 0 view .LVU139
 489 00ac 07B0     		add	sp, sp, #28
 490              	.LCFI8:
 491              		.cfi_def_cfa_offset 20
 492              		@ sp needed
 493 00ae F0BD     		pop	{r4, r5, r6, r7, pc}
 494              	.L21:
 495              		.align	2
 496              	.L20:
 497 00b0 400D0300 		.word	200000
 498 00b4 000C0040 		.word	1073744896
 499              		.cfi_endproc
 500              	.LFE124:
 502              		.section	.text.Encoder_Driver_Init,"ax",%progbits
 503              		.align	1
 504              		.global	Encoder_Driver_Init
 505              		.syntax unified
 506              		.thumb
 507              		.thumb_func
 509              	Encoder_Driver_Init:
ARM GAS  C:\Users\asus\AppData\Local\Temp\ccRZZoZk.s 			page 18


 510              	.LFB125:
 264:MyHardWare/Src/encoder.c ****   Encoder_GPIO_Init();
 511              		.loc 1 264 32 is_stmt 1 view -0
 512              		.cfi_startproc
 513              		@ args = 0, pretend = 0, frame = 0
 514              		@ frame_needed = 0, uses_anonymous_args = 0
 515 0000 08B5     		push	{r3, lr}
 516              	.LCFI9:
 517              		.cfi_def_cfa_offset 8
 518              		.cfi_offset 3, -8
 519              		.cfi_offset 14, -4
 265:MyHardWare/Src/encoder.c ****   Encoder_TIM_Init();
 520              		.loc 1 265 3 view .LVU141
 521 0002 FFF7FEFF 		bl	Encoder_GPIO_Init
 522              	.LVL42:
 266:MyHardWare/Src/encoder.c **** }
 523              		.loc 1 266 3 view .LVU142
 524 0006 FFF7FEFF 		bl	Encoder_TIM_Init
 525              	.LVL43:
 267:MyHardWare/Src/encoder.c **** 
 526              		.loc 1 267 1 is_stmt 0 view .LVU143
 527 000a 08BD     		pop	{r3, pc}
 528              		.cfi_endproc
 529              	.LFE125:
 531              		.section	.text.Encoder_GetData,"ax",%progbits
 532              		.align	1
 533              		.global	Encoder_GetData
 534              		.syntax unified
 535              		.thumb
 536              		.thumb_func
 538              	Encoder_GetData:
 539              	.LVL44:
 540              	.LFB127:
 401:MyHardWare/Src/encoder.c **** Encoder_Data_t Encoder_GetData(Encoder_Id_e encoder) {
 541              		.loc 1 401 54 is_stmt 1 view -0
 542              		.cfi_startproc
 543              		@ args = 0, pretend = 0, frame = 56
 544              		@ frame_needed = 0, uses_anonymous_args = 0
 545              		.loc 1 401 54 is_stmt 0 view .LVU145
 546 0000 30B5     		push	{r4, r5, lr}
 547              	.LCFI10:
 548              		.cfi_def_cfa_offset 12
 549              		.cfi_offset 4, -12
 550              		.cfi_offset 5, -8
 551              		.cfi_offset 14, -4
 552 0002 8FB0     		sub	sp, sp, #60
 553              	.LCFI11:
 554              		.cfi_def_cfa_offset 72
 555 0004 0546     		mov	r5, r0
 556 0006 0C46     		mov	r4, r1
 402:MyHardWare/Src/encoder.c ****   Encoder_Update(); // 确保数据是最新的
 557              		.loc 1 402 3 is_stmt 1 view .LVU146
 558 0008 FFF7FEFF 		bl	Encoder_Update
 559              	.LVL45:
 403:MyHardWare/Src/encoder.c ****   Encoder_Data_t empty_data = {0};
 560              		.loc 1 403 3 view .LVU147
 561              		.loc 1 403 18 is_stmt 0 view .LVU148
ARM GAS  C:\Users\asus\AppData\Local\Temp\ccRZZoZk.s 			page 19


 562 000c 3022     		movs	r2, #48
 563 000e 0021     		movs	r1, #0
 564 0010 02A8     		add	r0, sp, #8
 565 0012 FFF7FEFF 		bl	memset
 566              	.LVL46:
 404:MyHardWare/Src/encoder.c **** 
 405:MyHardWare/Src/encoder.c ****   // 参数检查
 406:MyHardWare/Src/encoder.c ****   if (encoder >= ENCODER_MAX) {
 567              		.loc 1 406 3 is_stmt 1 view .LVU149
 568              		.loc 1 406 6 is_stmt 0 view .LVU150
 569 0016 012C     		cmp	r4, #1
 570 0018 18D8     		bhi	.L28
 407:MyHardWare/Src/encoder.c ****     return empty_data;
 408:MyHardWare/Src/encoder.c ****   }
 409:MyHardWare/Src/encoder.c **** 
 410:MyHardWare/Src/encoder.c **** #ifdef QUAD_MOTOR_DRIVE
 411:MyHardWare/Src/encoder.c ****   // 四驱模式：返回 4 个编码器的数据
 412:MyHardWare/Src/encoder.c ****   Encoder_Class_t *encoders[] = {&Encoder_FR, &Encoder_FL, &Encoder_BR,
 413:MyHardWare/Src/encoder.c ****                                  &Encoder_BL};
 414:MyHardWare/Src/encoder.c **** #else
 415:MyHardWare/Src/encoder.c ****   // 双驱模式：返回 2 个编码器的数据
 416:MyHardWare/Src/encoder.c ****   Encoder_Class_t *encoders[] = {&Encoder_Right, &Encoder_Left};
 571              		.loc 1 416 3 is_stmt 1 view .LVU151
 572              		.loc 1 416 20 is_stmt 0 view .LVU152
 573 001a 0F4A     		ldr	r2, .L29
 574 001c 6B46     		mov	r3, sp
 575 001e 92E80300 		ldm	r2, {r0, r1}
 576 0022 83E80300 		stm	r3, {r0, r1}
 417:MyHardWare/Src/encoder.c **** #endif
 418:MyHardWare/Src/encoder.c **** 
 419:MyHardWare/Src/encoder.c ****   // 返回对应编码器的数据副本
 420:MyHardWare/Src/encoder.c ****   return encoders[encoder]->_data;
 577              		.loc 1 420 3 is_stmt 1 view .LVU153
 578              		.loc 1 420 18 is_stmt 0 view .LVU154
 579 0026 0EAB     		add	r3, sp, #56
 580 0028 03EB8404 		add	r4, r3, r4, lsl #2
 581              	.LVL47:
 582              		.loc 1 420 27 view .LVU155
 583 002c AC46     		mov	ip, r5
 584 002e 54F8384C 		ldr	r4, [r4, #-56]
 585 0032 0FCC     		ldmia	r4!, {r0, r1, r2, r3}
 586 0034 ACE80F00 		stmia	ip!, {r0, r1, r2, r3}
 587 0038 0FCC     		ldmia	r4!, {r0, r1, r2, r3}
 588 003a ACE80F00 		stmia	ip!, {r0, r1, r2, r3}
 589 003e 94E80F00 		ldm	r4, {r0, r1, r2, r3}
 590 0042 8CE80F00 		stm	ip, {r0, r1, r2, r3}
 591              	.L24:
 421:MyHardWare/Src/encoder.c **** }
 592              		.loc 1 421 1 view .LVU156
 593 0046 2846     		mov	r0, r5
 594 0048 0FB0     		add	sp, sp, #60
 595              	.LCFI12:
 596              		.cfi_remember_state
 597              		.cfi_def_cfa_offset 12
 598              		@ sp needed
 599 004a 30BD     		pop	{r4, r5, pc}
 600              	.LVL48:
ARM GAS  C:\Users\asus\AppData\Local\Temp\ccRZZoZk.s 			page 20


 601              	.L28:
 602              	.LCFI13:
 603              		.cfi_restore_state
 407:MyHardWare/Src/encoder.c ****     return empty_data;
 604              		.loc 1 407 5 is_stmt 1 view .LVU157
 407:MyHardWare/Src/encoder.c ****     return empty_data;
 605              		.loc 1 407 12 is_stmt 0 view .LVU158
 606 004c 3022     		movs	r2, #48
 607 004e 0021     		movs	r1, #0
 608 0050 2846     		mov	r0, r5
 609 0052 FFF7FEFF 		bl	memset
 610              	.LVL49:
 611 0056 F6E7     		b	.L24
 612              	.L30:
 613              		.align	2
 614              	.L29:
 615 0058 00000000 		.word	.LANCHOR0
 616              		.cfi_endproc
 617              	.LFE127:
 619              		.section	.data.Encoder_Left,"aw"
 620              		.align	2
 623              	Encoder_Left:
 624 0000 00000000 		.word	0
 625 0004 00000000 		.word	0
 626 0008 00000000 		.word	0
 627 000c 00000000 		.word	0
 628 0010 00000000 		.word	0
 629 0014 00000000 		.word	0
 630 0018 00000000 		.word	0
 631 001c 00000000 		.word	0
 632 0020 00       		.byte	0
 633 0021 000000   		.space	3
 634 0024 B81E853D 		.word	1032134328
 635 0028 0000803F 		.word	1065353216
 636 002c 00000000 		.word	0
 637 0030 00       		.byte	0
 638 0031 01       		.byte	1
 639 0032 0000     		.space	2
 640 0034 000C0040 		.word	1073744896
 641              		.section	.data.Encoder_Right,"aw"
 642              		.align	2
 645              	Encoder_Right:
 646 0000 00000000 		.word	0
 647 0004 00000000 		.word	0
 648 0008 00000000 		.word	0
 649 000c 00000000 		.word	0
 650 0010 00000000 		.word	0
 651 0014 00000000 		.word	0
 652 0018 00000000 		.word	0
 653 001c 00000000 		.word	0
 654 0020 00       		.byte	0
 655 0021 000000   		.space	3
 656 0024 B81E853D 		.word	1032134328
 657 0028 0000803F 		.word	1065353216
 658 002c 00000000 		.word	0
 659 0030 00       		.byte	0
 660 0031 00       		.byte	0
ARM GAS  C:\Users\asus\AppData\Local\Temp\ccRZZoZk.s 			page 21


 661 0032 0000     		.space	2
 662 0034 00000040 		.word	1073741824
 663              		.section	.rodata
 664              		.align	2
 665              		.set	.LANCHOR0,. + 0
 666              	.LC0:
 667 0000 00000000 		.word	Encoder_Right
 668 0004 00000000 		.word	Encoder_Left
 669              		.text
 670              	.Letext0:
 671              		.file 2 "C:/Program Files (x86)/Arm GNU Toolchain arm-none-eabi/13.2 Rel1/arm-none-eabi/include/ma
 672              		.file 3 "C:/Program Files (x86)/Arm GNU Toolchain arm-none-eabi/13.2 Rel1/arm-none-eabi/include/sy
 673              		.file 4 "CMSIS/stm32f4xx.h"
 674              		.file 5 "Lib/StdPeriphs/inc/stm32f4xx_gpio.h"
 675              		.file 6 "Lib/StdPeriphs/inc/stm32f4xx_tim.h"
 676              		.file 7 "MyHardWare/Inc/encoder.h"
 677              		.file 8 "Lib/StdPeriphs/inc/stm32f4xx_rcc.h"
 678              		.file 9 "MyHardWare/Inc/task.h"
 679              		.file 10 "<built-in>"
ARM GAS  C:\Users\asus\AppData\Local\Temp\ccRZZoZk.s 			page 22

