ARM GAS  C:\Users\asus\AppData\Local\Temp\cceyX9qF.s 			page 1


   1              		.cpu cortex-m4
   2              		.arch armv7e-m
   3              		.fpu fpv4-sp-d16
   4              		.eabi_attribute 27, 1
   5              		.eabi_attribute 28, 1
   6              		.eabi_attribute 20, 1
   7              		.eabi_attribute 21, 1
   8              		.eabi_attribute 23, 3
   9              		.eabi_attribute 24, 1
  10              		.eabi_attribute 25, 1
  11              		.eabi_attribute 26, 1
  12              		.eabi_attribute 30, 1
  13              		.eabi_attribute 34, 1
  14              		.eabi_attribute 18, 4
  15              		.file	"main.c"
  16              		.text
  17              	.Ltext0:
  18              		.cfi_sections	.debug_frame
  19              		.file 1 "USER/Src/main.c"
  20              		.section	.rodata.my_console_logger.str1.4,"aMS",%progbits,1
  21              		.align	2
  22              	.LC0:
  23 0000 2573205B 		.ascii	"%s [%s]: %s\000"
  23      25735D3A 
  23      20257300 
  24              		.section	.text.my_console_logger,"ax",%progbits
  25              		.align	1
  26              		.global	my_console_logger
  27              		.syntax unified
  28              		.thumb
  29              		.thumb_func
  31              	my_console_logger:
  32              	.LVL0:
  33              	.LFB126:
   1:USER/Src/main.c **** #include "delay.h"
   2:USER/Src/main.c **** #include "encoder.h" // 编码器模块
   3:USER/Src/main.c **** #include "led.h"
   4:USER/Src/main.c **** #include "motor.h"
   5:USER/Src/main.c **** #include "pid_speed.h" // 添加速度环PID控制器头文件
   6:USER/Src/main.c **** #include "rtc.h"
   7:USER/Src/main.c **** #include "stm32f4xx_gpio.h"
   8:USER/Src/main.c **** #include "stm32f4xx_usart.h"
   9:USER/Src/main.c **** #include "task.h" // 任务调度模块
  10:USER/Src/main.c **** #include "ulog.h"
  11:USER/Src/main.c **** #include "usart.h"
  12:USER/Src/main.c **** #include <stdint.h>
  13:USER/Src/main.c **** #include <stdio.h>
  14:USER/Src/main.c **** #include <stm32f4xx.h>
  15:USER/Src/main.c **** #include <string.h>
  16:USER/Src/main.c **** 
  17:USER/Src/main.c **** // 删除外部声明，让pid_speed模块内部管理实例
  18:USER/Src/main.c **** // Deleted:extern Speed_PID_Controller_t Speed_PID_Right; // 右轮速度PID控制器
  19:USER/Src/main.c **** // Deleted:extern Speed_PID_Controller_t Speed_PID_Left;  // 左轮速度PID控制器
  20:USER/Src/main.c **** 
  21:USER/Src/main.c **** void my_console_logger(ulog_level_t severity, const char *msg) {
  34              		.loc 1 21 64 view -0
  35              		.cfi_startproc
ARM GAS  C:\Users\asus\AppData\Local\Temp\cceyX9qF.s 			page 2


  36              		@ args = 0, pretend = 0, frame = 0
  37              		@ frame_needed = 0, uses_anonymous_args = 0
  38              		.loc 1 21 64 is_stmt 0 view .LVU1
  39 0000 70B5     		push	{r4, r5, r6, lr}
  40              	.LCFI0:
  41              		.cfi_def_cfa_offset 16
  42              		.cfi_offset 4, -16
  43              		.cfi_offset 5, -12
  44              		.cfi_offset 6, -8
  45              		.cfi_offset 14, -4
  46 0002 0646     		mov	r6, r0
  47 0004 0D46     		mov	r5, r1
  22:USER/Src/main.c ****   printf("%s [%s]: %s",
  48              		.loc 1 22 3 is_stmt 1 view .LVU2
  49 0006 FFF7FEFF 		bl	RTC_GetNowTime
  50              	.LVL1:
  51              		.loc 1 22 3 is_stmt 0 view .LVU3
  52 000a 0446     		mov	r4, r0
  53              		.loc 1 22 3 discriminator 1 view .LVU4
  54 000c 3046     		mov	r0, r6
  55 000e FFF7FEFF 		bl	ulog_level_name
  56              	.LVL2:
  57 0012 0246     		mov	r2, r0
  58              		.loc 1 22 3 discriminator 2 view .LVU5
  59 0014 2B46     		mov	r3, r5
  60 0016 2146     		mov	r1, r4
  61 0018 0148     		ldr	r0, .L3
  62 001a FFF7FEFF 		bl	printf
  63              	.LVL3:
  23:USER/Src/main.c ****          RTC_GetNowTime(), // user defined function
  24:USER/Src/main.c ****          ulog_level_name(severity), msg);
  25:USER/Src/main.c **** }
  64              		.loc 1 25 1 view .LVU6
  65 001e 70BD     		pop	{r4, r5, r6, pc}
  66              	.LVL4:
  67              	.L4:
  68              		.loc 1 25 1 view .LVU7
  69              		.align	2
  70              	.L3:
  71 0020 00000000 		.word	.LC0
  72              		.cfi_endproc
  73              	.LFE126:
  75              		.section	.rodata.speed_control_task.str1.4,"aMS",%progbits,1
  76              		.align	2
  77              	.LC1:
  78 0000 66696E6C 		.ascii	"finlish//\015\000"
  78      6973682F 
  78      2F0D00
  79              		.section	.text.speed_control_task,"ax",%progbits
  80              		.align	1
  81              		.global	speed_control_task
  82              		.syntax unified
  83              		.thumb
  84              		.thumb_func
  86              	speed_control_task:
  87              	.LFB127:
  26:USER/Src/main.c **** 
ARM GAS  C:\Users\asus\AppData\Local\Temp\cceyX9qF.s 			page 3


  27:USER/Src/main.c **** // 10ms周期的速度环PID控制任务
  28:USER/Src/main.c **** void speed_control_task(void) {
  88              		.loc 1 28 31 is_stmt 1 view -0
  89              		.cfi_startproc
  90              		@ args = 0, pretend = 0, frame = 0
  91              		@ frame_needed = 0, uses_anonymous_args = 0
  92 0000 08B5     		push	{r3, lr}
  93              	.LCFI1:
  94              		.cfi_def_cfa_offset 8
  95              		.cfi_offset 3, -8
  96              		.cfi_offset 14, -4
  29:USER/Src/main.c ****   // 更新右轮速度环PID控制器
  30:USER/Src/main.c ****   Speed_PID_Update(&Speed_PID_Right);
  97              		.loc 1 30 3 view .LVU9
  98 0002 0848     		ldr	r0, .L7
  99 0004 FFF7FEFF 		bl	Speed_PID_Update
 100              	.LVL5:
  31:USER/Src/main.c ****   
  32:USER/Src/main.c ****   // 更新左轮速度环PID控制器
  33:USER/Src/main.c ****   Speed_PID_Update(&Speed_PID_Left);
 101              		.loc 1 33 3 view .LVU10
 102 0008 0748     		ldr	r0, .L7+4
 103 000a FFF7FEFF 		bl	Speed_PID_Update
 104              	.LVL6:
  34:USER/Src/main.c ****   Motor_Update(MOTOR_LEFT);
 105              		.loc 1 34 3 view .LVU11
 106 000e 0120     		movs	r0, #1
 107 0010 FFF7FEFF 		bl	Motor_Update
 108              	.LVL7:
  35:USER/Src/main.c ****   Motor_Update(MOTOR_RIGHT);
 109              		.loc 1 35 3 view .LVU12
 110 0014 0020     		movs	r0, #0
 111 0016 FFF7FEFF 		bl	Motor_Update
 112              	.LVL8:
  36:USER/Src/main.c ****   printf("finlish//\r\n");
 113              		.loc 1 36 3 view .LVU13
 114 001a 0448     		ldr	r0, .L7+8
 115 001c FFF7FEFF 		bl	puts
 116              	.LVL9:
  37:USER/Src/main.c **** }
 117              		.loc 1 37 1 is_stmt 0 view .LVU14
 118 0020 08BD     		pop	{r3, pc}
 119              	.L8:
 120 0022 00BF     		.align	2
 121              	.L7:
 122 0024 00000000 		.word	Speed_PID_Right
 123 0028 00000000 		.word	Speed_PID_Left
 124 002c 00000000 		.word	.LC1
 125              		.cfi_endproc
 126              	.LFE127:
 128              		.section	.text.motor_test,"ax",%progbits
 129              		.align	1
 130              		.global	motor_test
 131              		.syntax unified
 132              		.thumb
 133              		.thumb_func
 135              	motor_test:
ARM GAS  C:\Users\asus\AppData\Local\Temp\cceyX9qF.s 			page 4


 136              	.LFB128:
  38:USER/Src/main.c **** 
  39:USER/Src/main.c **** void motor_test(void) {
 137              		.loc 1 39 23 is_stmt 1 view -0
 138              		.cfi_startproc
 139              		@ args = 0, pretend = 0, frame = 0
 140              		@ frame_needed = 0, uses_anonymous_args = 0
 141 0000 08B5     		push	{r3, lr}
 142              	.LCFI2:
 143              		.cfi_def_cfa_offset 8
 144              		.cfi_offset 3, -8
 145              		.cfi_offset 14, -4
  40:USER/Src/main.c ****   Motor_SetSpeed(MOTOR_LEFT, 4000);  // 左电机正转，速度 4000
 146              		.loc 1 40 3 view .LVU16
 147 0002 4FF47A61 		mov	r1, #4000
 148 0006 0120     		movs	r0, #1
 149 0008 FFF7FEFF 		bl	Motor_SetSpeed
 150              	.LVL10:
  41:USER/Src/main.c ****   Motor_SetSpeed(MOTOR_RIGHT, 4000); // 右电机正转，速度 4000
 151              		.loc 1 41 3 view .LVU17
 152 000c 4FF47A61 		mov	r1, #4000
 153 0010 0020     		movs	r0, #0
 154 0012 FFF7FEFF 		bl	Motor_SetSpeed
 155              	.LVL11:
  42:USER/Src/main.c ****   Motor_SetDirection(MOTOR_LEFT, MOTOR_DIR_FORWARD);
 156              		.loc 1 42 3 view .LVU18
 157 0016 0121     		movs	r1, #1
 158 0018 0846     		mov	r0, r1
 159 001a FFF7FEFF 		bl	Motor_SetDirection
 160              	.LVL12:
  43:USER/Src/main.c ****   Motor_SetDirection(MOTOR_RIGHT, MOTOR_DIR_FORWARD);
 161              		.loc 1 43 3 view .LVU19
 162 001e 0121     		movs	r1, #1
 163 0020 0020     		movs	r0, #0
 164 0022 FFF7FEFF 		bl	Motor_SetDirection
 165              	.LVL13:
  44:USER/Src/main.c **** 
  45:USER/Src/main.c ****   // 更新电机状态，将配置应用到硬件
  46:USER/Src/main.c **** }
 166              		.loc 1 46 1 is_stmt 0 view .LVU20
 167 0026 08BD     		pop	{r3, pc}
 168              		.cfi_endproc
 169              	.LFE128:
 171              		.section	.rodata.main.str1.4,"aMS",%progbits,1
 172              		.align	2
 173              	.LC2:
 174 0000 68656C6C 		.ascii	"hello world\015\000"
 174      6F20776F 
 174      726C640D 
 174      00
 175 000d 000000   		.align	2
 176              	.LC3:
 177 0010 696E2074 		.ascii	"in task//\000"
 177      61736B2F 
 177      2F00
 178              		.section	.text.main,"ax",%progbits
 179              		.align	1
ARM GAS  C:\Users\asus\AppData\Local\Temp\cceyX9qF.s 			page 5


 180              		.global	main
 181              		.syntax unified
 182              		.thumb
 183              		.thumb_func
 185              	main:
 186              	.LFB129:
  47:USER/Src/main.c **** 
  48:USER/Src/main.c **** int main() {
 187              		.loc 1 48 12 is_stmt 1 view -0
 188              		.cfi_startproc
 189              		@ args = 0, pretend = 0, frame = 0
 190              		@ frame_needed = 0, uses_anonymous_args = 0
 191 0000 38B5     		push	{r3, r4, r5, lr}
 192              	.LCFI3:
 193              		.cfi_def_cfa_offset 16
 194              		.cfi_offset 3, -16
 195              		.cfi_offset 4, -12
 196              		.cfi_offset 5, -8
 197              		.cfi_offset 14, -4
 198 0002 2DED028B 		vpush.64	{d8}
 199              	.LCFI4:
 200              		.cfi_def_cfa_offset 24
 201              		.cfi_offset 80, -24
 202              		.cfi_offset 81, -20
  49:USER/Src/main.c ****   int arg = 42;
 203              		.loc 1 49 3 view .LVU22
 204              	.LVL14:
  50:USER/Src/main.c ****   led_Init();
 205              		.loc 1 50 3 view .LVU23
 206 0006 FFF7FEFF 		bl	led_Init
 207              	.LVL15:
  51:USER/Src/main.c ****   LED_Off();
 208              		.loc 1 51 3 view .LVU24
 209 000a FFF7FEFF 		bl	LED_Off
 210              	.LVL16:
  52:USER/Src/main.c ****   Motor_Driver_Init();
 211              		.loc 1 52 3 view .LVU25
 212 000e FFF7FEFF 		bl	Motor_Driver_Init
 213              	.LVL17:
  53:USER/Src/main.c **** 
  54:USER/Src/main.c ****   // 初始化编码器模块
  55:USER/Src/main.c ****   Encoder_Driver_Init();
 214              		.loc 1 55 3 view .LVU26
 215 0012 FFF7FEFF 		bl	Encoder_Driver_Init
 216              	.LVL18:
  56:USER/Src/main.c **** 
  57:USER/Src/main.c ****   // 初始化任务调度系统
  58:USER/Src/main.c ****   Task_Init();
 217              		.loc 1 58 3 view .LVU27
 218 0016 FFF7FEFF 		bl	Task_Init
 219              	.LVL19:
  59:USER/Src/main.c ****   
  60:USER/Src/main.c **** 
  61:USER/Src/main.c ****     // 初始化速度环PID控制器
  62:USER/Src/main.c ****     // 右轮: 关联ENCODER_RIGHT编码器和MOTOR_RIGHT电机
  63:USER/Src/main.c ****     Speed_PID_Init(&Speed_PID_Right, ENCODER_RIGHT, MOTOR_RIGHT,
 220              		.loc 1 63 5 view .LVU28
ARM GAS  C:\Users\asus\AppData\Local\Temp\cceyX9qF.s 			page 6


 221 001a 9FED1D8A 		vldr.32	s16, .L14
 222 001e 1D4D     		ldr	r5, .L14+4
 223 0020 B0EE481A 		vmov.f32	s2, s16
 224 0024 F6EE000A 		vmov.f32	s1, #5.0e-1
 225 0028 B0EE000A 		vmov.f32	s0, #2.0e+0
 226 002c 0022     		movs	r2, #0
 227 002e 1146     		mov	r1, r2
 228 0030 2846     		mov	r0, r5
 229 0032 FFF7FEFF 		bl	Speed_PID_Init
 230              	.LVL20:
  64:USER/Src/main.c ****                    SPEED_PID_KP_DEFAULT, SPEED_PID_KI_DEFAULT,
  65:USER/Src/main.c ****                    SPEED_PID_KD_DEFAULT);
  66:USER/Src/main.c **** 
  67:USER/Src/main.c ****     // 左轮: 关联ENCODER_LEFT编码器和MOTOR_LEFT电机
  68:USER/Src/main.c ****     Speed_PID_Init(&Speed_PID_Left, ENCODER_LEFT, MOTOR_LEFT,
 231              		.loc 1 68 5 view .LVU29
 232 0036 184C     		ldr	r4, .L14+8
 233 0038 B0EE481A 		vmov.f32	s2, s16
 234 003c F6EE000A 		vmov.f32	s1, #5.0e-1
 235 0040 B0EE000A 		vmov.f32	s0, #2.0e+0
 236 0044 0122     		movs	r2, #1
 237 0046 1146     		mov	r1, r2
 238 0048 2046     		mov	r0, r4
 239 004a FFF7FEFF 		bl	Speed_PID_Init
 240              	.LVL21:
  69:USER/Src/main.c ****                    SPEED_PID_KP_DEFAULT, SPEED_PID_KI_DEFAULT,
  70:USER/Src/main.c ****                    SPEED_PID_KD_DEFAULT);
  71:USER/Src/main.c **** 
  72:USER/Src/main.c ****     // 设置目标速度（例如0.5m/s）
  73:USER/Src/main.c ****     Speed_PID_SetTargetSpeed(&Speed_PID_Right, 0.5f);
 241              		.loc 1 73 5 view .LVU30
 242 004e B6EE000A 		vmov.f32	s0, #5.0e-1
 243 0052 2846     		mov	r0, r5
 244 0054 FFF7FEFF 		bl	Speed_PID_SetTargetSpeed
 245              	.LVL22:
  74:USER/Src/main.c ****     Speed_PID_SetTargetSpeed(&Speed_PID_Left, 0.5f);
 246              		.loc 1 74 5 view .LVU31
 247 0058 B6EE000A 		vmov.f32	s0, #5.0e-1
 248 005c 2046     		mov	r0, r4
 249 005e FFF7FEFF 		bl	Speed_PID_SetTargetSpeed
 250              	.LVL23:
  75:USER/Src/main.c **** 
  76:USER/Src/main.c ****     // 启用速度环PID控制
  77:USER/Src/main.c ****     Speed_PID_Enable(&Speed_PID_Right);
 251              		.loc 1 77 5 view .LVU32
 252 0062 2846     		mov	r0, r5
 253 0064 FFF7FEFF 		bl	Speed_PID_Enable
 254              	.LVL24:
  78:USER/Src/main.c ****     Speed_PID_Enable(&Speed_PID_Left);
 255              		.loc 1 78 5 view .LVU33
 256 0068 2046     		mov	r0, r4
 257 006a FFF7FEFF 		bl	Speed_PID_Enable
 258              	.LVL25:
  79:USER/Src/main.c **** 
  80:USER/Src/main.c ****     // // 添加10ms周期的速度控制任务
  81:USER/Src/main.c ****     // add_task(speed_control_task, SPEED_PID_SAMPLE_PERIOD_MS);
  82:USER/Src/main.c ****   
ARM GAS  C:\Users\asus\AppData\Local\Temp\cceyX9qF.s 			page 7


  83:USER/Src/main.c **** 
  84:USER/Src/main.c ****   USART1_Init();
 259              		.loc 1 84 3 view .LVU34
 260 006e FFF7FEFF 		bl	USART1_Init
 261              	.LVL26:
  85:USER/Src/main.c ****   printf("hello world\r\n");
 262              		.loc 1 85 3 view .LVU35
 263 0072 0A48     		ldr	r0, .L14+12
 264 0074 FFF7FEFF 		bl	puts
 265              	.LVL27:
  86:USER/Src/main.c **** 
  87:USER/Src/main.c ****   delay_init();
 266              		.loc 1 87 3 view .LVU36
 267 0078 FFF7FEFF 		bl	delay_init
 268              	.LVL28:
 269              	.L12:
  88:USER/Src/main.c ****   Encoder_Data_t encoder_data;
 270              		.loc 1 88 3 view .LVU37
  89:USER/Src/main.c ****   // uint32_t count = 0;
  90:USER/Src/main.c ****   // motor_test();
  91:USER/Src/main.c **** 
  92:USER/Src/main.c **** 
  93:USER/Src/main.c **** 
  94:USER/Src/main.c **** 
  95:USER/Src/main.c ****   // 更新电机状态，将配置应用到硬件
  96:USER/Src/main.c ****   while (1) {
 271              		.loc 1 96 3 view .LVU38
  97:USER/Src/main.c ****     // speed_control_task();
  98:USER/Src/main.c ****     // GPIO_ToggleBits(GPIOC, 13);
  99:USER/Src/main.c **** 
 100:USER/Src/main.c ****     speed_control_task();
 272              		.loc 1 100 5 view .LVU39
 273 007c FFF7FEFF 		bl	speed_control_task
 274              	.LVL29:
 101:USER/Src/main.c **** 
 102:USER/Src/main.c ****     printf("in task//");
 275              		.loc 1 102 5 view .LVU40
 276 0080 0748     		ldr	r0, .L14+16
 277 0082 FFF7FEFF 		bl	printf
 278              	.LVL30:
 103:USER/Src/main.c ****     delay_ms(10);
 279              		.loc 1 103 5 discriminator 1 view .LVU41
 280 0086 0A20     		movs	r0, #10
 281 0088 FFF7FEFF 		bl	delay_ms
 282              	.LVL31:
  96:USER/Src/main.c ****     // speed_control_task();
 283              		.loc 1 96 9 view .LVU42
 284 008c F6E7     		b	.L12
 285              	.L15:
 286 008e 00BF     		.align	2
 287              	.L14:
 288 0090 CDCCCC3D 		.word	1036831949
 289 0094 00000000 		.word	Speed_PID_Right
 290 0098 00000000 		.word	Speed_PID_Left
 291 009c 00000000 		.word	.LC2
 292 00a0 10000000 		.word	.LC3
 293              		.cfi_endproc
ARM GAS  C:\Users\asus\AppData\Local\Temp\cceyX9qF.s 			page 8


 294              	.LFE129:
 296              		.text
 297              	.Letext0:
 298              		.file 2 "C:/Program Files (x86)/Arm GNU Toolchain arm-none-eabi/13.2 Rel1/arm-none-eabi/include/ma
 299              		.file 3 "C:/Program Files (x86)/Arm GNU Toolchain arm-none-eabi/13.2 Rel1/arm-none-eabi/include/sy
 300              		.file 4 "MyHardWare/Inc/encoder.h"
 301              		.file 5 "MyHardWare/Inc/motor.h"
 302              		.file 6 "MyHardWare/Inc/pid_speed.h"
 303              		.file 7 "MyHardWare/Inc/ulog.h"
 304              		.file 8 "MyHardWare/Inc/delay.h"
 305              		.file 9 "MyHardWare/Inc/usart.h"
 306              		.file 10 "MyHardWare/Inc/task.h"
 307              		.file 11 "MyHardWare/Inc/led.h"
 308              		.file 12 "C:/Program Files (x86)/Arm GNU Toolchain arm-none-eabi/13.2 Rel1/arm-none-eabi/include/s
 309              		.file 13 "MyHardWare/Inc/rtc.h"
 310              		.file 14 "<built-in>"
ARM GAS  C:\Users\asus\AppData\Local\Temp\cceyX9qF.s 			page 9


DEFINED SYMBOLS
                            *ABS*:00000000 main.c
C:\Users\asus\AppData\Local\Temp\cceyX9qF.s:21     .rodata.my_console_logger.str1.4:00000000 $d
C:\Users\asus\AppData\Local\Temp\cceyX9qF.s:25     .text.my_console_logger:00000000 $t
C:\Users\asus\AppData\Local\Temp\cceyX9qF.s:31     .text.my_console_logger:00000000 my_console_logger
C:\Users\asus\AppData\Local\Temp\cceyX9qF.s:71     .text.my_console_logger:00000020 $d
C:\Users\asus\AppData\Local\Temp\cceyX9qF.s:76     .rodata.speed_control_task.str1.4:00000000 $d
C:\Users\asus\AppData\Local\Temp\cceyX9qF.s:80     .text.speed_control_task:00000000 $t
C:\Users\asus\AppData\Local\Temp\cceyX9qF.s:86     .text.speed_control_task:00000000 speed_control_task
C:\Users\asus\AppData\Local\Temp\cceyX9qF.s:122    .text.speed_control_task:00000024 $d
C:\Users\asus\AppData\Local\Temp\cceyX9qF.s:129    .text.motor_test:00000000 $t
C:\Users\asus\AppData\Local\Temp\cceyX9qF.s:135    .text.motor_test:00000000 motor_test
C:\Users\asus\AppData\Local\Temp\cceyX9qF.s:172    .rodata.main.str1.4:00000000 $d
C:\Users\asus\AppData\Local\Temp\cceyX9qF.s:179    .text.main:00000000 $t
C:\Users\asus\AppData\Local\Temp\cceyX9qF.s:185    .text.main:00000000 main
C:\Users\asus\AppData\Local\Temp\cceyX9qF.s:288    .text.main:00000090 $d

UNDEFINED SYMBOLS
RTC_GetNowTime
ulog_level_name
printf
Speed_PID_Update
Motor_Update
puts
Speed_PID_Right
Speed_PID_Left
Motor_SetSpeed
Motor_SetDirection
led_Init
LED_Off
Motor_Driver_Init
Encoder_Driver_Init
Task_Init
Speed_PID_Init
Speed_PID_SetTargetSpeed
Speed_PID_Enable
USART1_Init
delay_init
delay_ms
