ARM GAS  /tmp/ccMK8rMR.s 			page 1


   1              		.cpu cortex-m4
   2              		.arch armv7e-m
   3              		.fpu fpv4-sp-d16
   4              		.eabi_attribute 27, 1
   5              		.eabi_attribute 28, 1
   6              		.eabi_attribute 20, 1
   7              		.eabi_attribute 21, 1
   8              		.eabi_attribute 23, 3
   9              		.eabi_attribute 24, 1
  10              		.eabi_attribute 25, 1
  11              		.eabi_attribute 26, 1
  12              		.eabi_attribute 30, 1
  13              		.eabi_attribute 34, 1
  14              		.eabi_attribute 18, 4
  15              		.file	"main.c"
  16              		.text
  17              	.Ltext0:
  18              		.cfi_sections	.debug_frame
  19              		.file 1 "USER/Src/main.c"
  20              		.section	.text.encoder_upgrade,"ax",%progbits
  21              		.align	1
  22              		.global	encoder_upgrade
  23              		.syntax unified
  24              		.thumb
  25              		.thumb_func
  27              	encoder_upgrade:
  28              	.LFB129:
   1:USER/Src/main.c **** #include "delay.h"
   2:USER/Src/main.c **** #include "encoder.h" // 编码器模块
   3:USER/Src/main.c **** #include "led.h"
   4:USER/Src/main.c **** #include "motor.h"
   5:USER/Src/main.c **** #include "pid_speed.h" // 添加速度环PID控制器头文件
   6:USER/Src/main.c **** #include "rtc.h"
   7:USER/Src/main.c **** #include "stm32f4xx_gpio.h"
   8:USER/Src/main.c **** #include "stm32f4xx_usart.h"
   9:USER/Src/main.c **** #include "task.h" // 任务调度模块
  10:USER/Src/main.c **** #include "ulog.h"
  11:USER/Src/main.c **** #include "usart.h"
  12:USER/Src/main.c **** #include <stdint.h>
  13:USER/Src/main.c **** #include <stdio.h>
  14:USER/Src/main.c **** #include <stm32f4xx.h>
  15:USER/Src/main.c **** #include <string.h>
  16:USER/Src/main.c **** 
  17:USER/Src/main.c **** // 删除外部声明，让pid_speed模块内部管理实例
  18:USER/Src/main.c **** // Deleted:extern Speed_PID_Controller_t Speed_PID_Right; // 右轮速度PID控制器
  19:USER/Src/main.c **** // Deleted:extern Speed_PID_Controller_t Speed_PID_Left;  // 左轮速度PID控制器
  20:USER/Src/main.c **** 
  21:USER/Src/main.c **** void my_console_logger(ulog_level_t severity, const char *msg) {
  22:USER/Src/main.c ****   printf("%s [%s]: %s",
  23:USER/Src/main.c ****          RTC_GetNowTime(), // user defined function
  24:USER/Src/main.c ****          ulog_level_name(severity), msg);
  25:USER/Src/main.c **** }
  26:USER/Src/main.c **** 
  27:USER/Src/main.c **** // 10ms周期的速度环PID控制任务
  28:USER/Src/main.c **** void speed_control_task(void) {
  29:USER/Src/main.c ****   // 更新右轮速度环PID控制器
  30:USER/Src/main.c ****   Speed_PID_Update(&Speed_PID_Right);
ARM GAS  /tmp/ccMK8rMR.s 			page 2


  31:USER/Src/main.c **** 
  32:USER/Src/main.c ****   // 更新左轮速度环PID控制器
  33:USER/Src/main.c ****   Speed_PID_Update(&Speed_PID_Left);
  34:USER/Src/main.c **** }
  35:USER/Src/main.c **** 
  36:USER/Src/main.c **** void motor_test(void) {
  37:USER/Src/main.c ****   Motor_SetSpeed(MOTOR_LEFT, 4000);  // 左电机正转，速度 4000
  38:USER/Src/main.c ****   Motor_SetSpeed(MOTOR_RIGHT, 4000); // 右电机正转，速度 4000
  39:USER/Src/main.c ****   Motor_SetDirection(MOTOR_LEFT, MOTOR_DIR_FORWARD);
  40:USER/Src/main.c ****   Motor_SetDirection(MOTOR_RIGHT, MOTOR_DIR_BACKWARD);
  41:USER/Src/main.c **** 
  42:USER/Src/main.c ****   // 更新电机状态，将配置应用到硬件
  43:USER/Src/main.c ****   Motor_Update(MOTOR_LEFT);
  44:USER/Src/main.c ****   Motor_Update(MOTOR_RIGHT);
  45:USER/Src/main.c **** }
  46:USER/Src/main.c **** 
  47:USER/Src/main.c **** Encoder_Data_t encoder_data_LEFT;
  48:USER/Src/main.c **** Encoder_Data_t encoder_data_RIGHT;
  49:USER/Src/main.c **** void encoder_upgrade(void) {
  29              		.loc 1 49 28 view -0
  30              		.cfi_startproc
  31              		@ args = 0, pretend = 0, frame = 56
  32              		@ frame_needed = 0, uses_anonymous_args = 0
  33 0000 10B5     		push	{r4, lr}
  34              	.LCFI0:
  35              		.cfi_def_cfa_offset 8
  36              		.cfi_offset 4, -8
  37              		.cfi_offset 14, -4
  38 0002 8EB0     		sub	sp, sp, #56
  39              	.LCFI1:
  40              		.cfi_def_cfa_offset 64
  50:USER/Src/main.c ****   encoder_data_LEFT = Encoder_GetData(ENCODER_LEFT);
  41              		.loc 1 50 3 view .LVU1
  42              		.loc 1 50 23 is_stmt 0 view .LVU2
  43 0004 0121     		movs	r1, #1
  44 0006 6846     		mov	r0, sp
  45 0008 FFF7FEFF 		bl	Encoder_GetData
  46              	.LVL0:
  47 000c 104C     		ldr	r4, .L3
  48 000e EC46     		mov	ip, sp
  49 0010 BCE80F00 		ldmia	ip!, {r0, r1, r2, r3}
  50 0014 0FC4     		stmia	r4!, {r0, r1, r2, r3}
  51 0016 BCE80F00 		ldmia	ip!, {r0, r1, r2, r3}
  52 001a 0FC4     		stmia	r4!, {r0, r1, r2, r3}
  53 001c BCE80F00 		ldmia	ip!, {r0, r1, r2, r3}
  54 0020 0FC4     		stmia	r4!, {r0, r1, r2, r3}
  55 0022 DCF80030 		ldr	r3, [ip]
  56 0026 2360     		str	r3, [r4]
  51:USER/Src/main.c ****   encoder_data_RIGHT = Encoder_GetData(ENCODER_RIGHT);
  57              		.loc 1 51 3 is_stmt 1 view .LVU3
  58              		.loc 1 51 24 is_stmt 0 view .LVU4
  59 0028 0021     		movs	r1, #0
  60 002a 6846     		mov	r0, sp
  61 002c FFF7FEFF 		bl	Encoder_GetData
  62              	.LVL1:
  63 0030 084C     		ldr	r4, .L3+4
  64 0032 EC46     		mov	ip, sp
ARM GAS  /tmp/ccMK8rMR.s 			page 3


  65 0034 BCE80F00 		ldmia	ip!, {r0, r1, r2, r3}
  66 0038 0FC4     		stmia	r4!, {r0, r1, r2, r3}
  67 003a BCE80F00 		ldmia	ip!, {r0, r1, r2, r3}
  68 003e 0FC4     		stmia	r4!, {r0, r1, r2, r3}
  69 0040 BCE80F00 		ldmia	ip!, {r0, r1, r2, r3}
  70 0044 0FC4     		stmia	r4!, {r0, r1, r2, r3}
  71 0046 DCF80030 		ldr	r3, [ip]
  72 004a 2360     		str	r3, [r4]
  52:USER/Src/main.c **** }
  73              		.loc 1 52 1 view .LVU5
  74 004c 0EB0     		add	sp, sp, #56
  75              	.LCFI2:
  76              		.cfi_def_cfa_offset 8
  77              		@ sp needed
  78 004e 10BD     		pop	{r4, pc}
  79              	.L4:
  80              		.align	2
  81              	.L3:
  82 0050 00000000 		.word	encoder_data_LEFT
  83 0054 00000000 		.word	encoder_data_RIGHT
  84              		.cfi_endproc
  85              	.LFE129:
  87              		.section	.rodata.print_encoderData.str1.4,"aMS",%progbits,1
  88              		.align	2
  89              	.LC0:
  90 0000 3D3D3D20 		.ascii	"=== LEFT ENCODER DEBUG ===\015\000"
  90      4C454654 
  90      20454E43 
  90      4F444552 
  90      20444542 
  91              		.align	2
  92              	.LC1:
  93 001c 436F756E 		.ascii	"Count: %d, Last_Count: %d, Delta: %d\015\012\000"
  93      743A2025 
  93      642C204C 
  93      6173745F 
  93      436F756E 
  94              		.global	__aeabi_f2d
  95 0043 00       		.align	2
  96              	.LC2:
  97 0044 53706565 		.ascii	"Speed - RPM: %.2f, RPS: %.4f, rad/s: %.4f, m/s: %.4"
  97      64202D20 
  97      52504D3A 
  97      20252E32 
  97      662C2052 
  98 0077 660D0A00 		.ascii	"f\015\012\000"
  99 007b 00       		.align	2
 100              	.LC3:
 101 007c 44697265 		.ascii	"Direction: %d, distance: %.4fm\015\012\000"
 101      6374696F 
 101      6E3A2025 
 101      642C2064 
 101      69737461 
 102 009d 000000   		.align	2
 103              	.LC4:
 104 00a0 3D3D3D20 		.ascii	"=== RIGHT ENCODER DEBUG ===\015\000"
 104      52494748 
ARM GAS  /tmp/ccMK8rMR.s 			page 4


 104      5420454E 
 104      434F4445 
 104      52204445 
 105 00bd 000000   		.align	2
 106              	.LC5:
 107 00c0 44697265 		.ascii	"Direction: %d, distance: %.4fm\015\012\015\012\000"
 107      6374696F 
 107      6E3A2025 
 107      642C2064 
 107      69737461 
 108 00e3 00       		.align	2
 109              	.LC6:
 110 00e4 0D00     		.ascii	"\015\000"
 111              		.section	.text.print_encoderData,"ax",%progbits
 112              		.align	1
 113              		.global	print_encoderData
 114              		.syntax unified
 115              		.thumb
 116              		.thumb_func
 118              	print_encoderData:
 119              	.LFB130:
  53:USER/Src/main.c **** // ... existing code ...
  54:USER/Src/main.c **** void print_encoderData(void) {
 120              		.loc 1 54 30 is_stmt 1 view -0
 121              		.cfi_startproc
 122              		@ args = 0, pretend = 0, frame = 0
 123              		@ frame_needed = 0, uses_anonymous_args = 0
 124 0000 2DE9F04F 		push	{r4, r5, r6, r7, r8, r9, r10, fp, lr}
 125              	.LCFI3:
 126              		.cfi_def_cfa_offset 36
 127              		.cfi_offset 4, -36
 128              		.cfi_offset 5, -32
 129              		.cfi_offset 6, -28
 130              		.cfi_offset 7, -24
 131              		.cfi_offset 8, -20
 132              		.cfi_offset 9, -16
 133              		.cfi_offset 10, -12
 134              		.cfi_offset 11, -8
 135              		.cfi_offset 14, -4
 136 0004 87B0     		sub	sp, sp, #28
 137              	.LCFI4:
 138              		.cfi_def_cfa_offset 64
  55:USER/Src/main.c ****   // printf("tim:%d Left Encoder - Count: %d, speed:%.2f m/s X: %.2f m\r\n",
  56:USER/Src/main.c ****   //        GetSysTick(), encoder_data_LEFT.count, encoder_data_LEFT.speed_m_s,
  57:USER/Src/main.c ****   //        encoder_data_LEFT.total_distance);
  58:USER/Src/main.c ****   // printf("tim:%d Right Encoder - Count: %d, speed:%.2f m/s X: %.2f m\r\n",
  59:USER/Src/main.c ****   //        GetSysTick(), encoder_data_RIGHT.count,
  60:USER/Src/main.c ****   //        encoder_data_RIGHT.speed_m_s, encoder_data_RIGHT.total_distance);
  61:USER/Src/main.c **** 
  62:USER/Src/main.c ****   // 调试信息：打印详细的编码器数据
  63:USER/Src/main.c ****   printf("=== LEFT ENCODER DEBUG ===\r\n");
 139              		.loc 1 63 3 view .LVU7
 140 0006 3948     		ldr	r0, .L7
 141 0008 FFF7FEFF 		bl	puts
 142              	.LVL2:
  64:USER/Src/main.c ****   printf("Count: %d, Last_Count: %d, Delta: %d\r\n", encoder_data_LEFT.count,
 143              		.loc 1 64 3 view .LVU8
ARM GAS  /tmp/ccMK8rMR.s 			page 5


  65:USER/Src/main.c ****          encoder_data_LEFT.last_count, encoder_data_LEFT.delta_count);
 144              		.loc 1 65 27 is_stmt 0 view .LVU9
 145 000c 384C     		ldr	r4, .L7+4
 146 000e 6268     		ldr	r2, [r4, #4]
 147              		.loc 1 65 57 view .LVU10
 148 0010 A368     		ldr	r3, [r4, #8]
  64:USER/Src/main.c ****   printf("Count: %d, Last_Count: %d, Delta: %d\r\n", encoder_data_LEFT.count,
 149              		.loc 1 64 3 view .LVU11
 150 0012 DFF8F490 		ldr	r9, .L7+28
 151 0016 2168     		ldr	r1, [r4]
 152 0018 4846     		mov	r0, r9
 153 001a FFF7FEFF 		bl	printf
 154              	.LVL3:
  66:USER/Src/main.c ****   printf("Speed - RPM: %.2f, RPS: %.4f, rad/s: %.4f, m/s: %.4f\r\n",
 155              		.loc 1 66 3 is_stmt 1 view .LVU12
  67:USER/Src/main.c ****          encoder_data_LEFT.speed_rpm, encoder_data_LEFT.speed_rps,
 156              		.loc 1 67 27 is_stmt 0 view .LVU13
 157 001e E068     		ldr	r0, [r4, #12]	@ float
 158              		.loc 1 67 56 view .LVU14
 159 0020 2569     		ldr	r5, [r4, #16]	@ float
  68:USER/Src/main.c ****          encoder_data_LEFT.speed_rad_s, encoder_data_LEFT.speed_m_s);
 160              		.loc 1 68 27 view .LVU15
 161 0022 D4F814A0 		ldr	r10, [r4, #20]	@ float
 162              		.loc 1 68 58 view .LVU16
 163 0026 D4F818B0 		ldr	fp, [r4, #24]	@ float
  66:USER/Src/main.c ****   printf("Speed - RPM: %.2f, RPS: %.4f, rad/s: %.4f, m/s: %.4f\r\n",
 164              		.loc 1 66 3 view .LVU17
 165 002a FFF7FEFF 		bl	__aeabi_f2d
 166              	.LVL4:
 167 002e 0646     		mov	r6, r0
 168 0030 0F46     		mov	r7, r1
 169 0032 DFF8D880 		ldr	r8, .L7+32
 170 0036 5846     		mov	r0, fp	@ float
 171 0038 FFF7FEFF 		bl	__aeabi_f2d
 172              	.LVL5:
 173 003c CDE90401 		strd	r0, [sp, #16]
 174 0040 5046     		mov	r0, r10	@ float
 175 0042 FFF7FEFF 		bl	__aeabi_f2d
 176              	.LVL6:
 177 0046 CDE90201 		strd	r0, [sp, #8]
 178 004a 2846     		mov	r0, r5	@ float
 179 004c FFF7FEFF 		bl	__aeabi_f2d
 180              	.LVL7:
 181 0050 CDE90001 		strd	r0, [sp]
 182 0054 3246     		mov	r2, r6
 183 0056 3B46     		mov	r3, r7
 184 0058 4046     		mov	r0, r8
 185 005a FFF7FEFF 		bl	printf
 186              	.LVL8:
  69:USER/Src/main.c ****   printf("Direction: %d, distance: %.4fm\r\n", encoder_data_LEFT.direction,
 187              		.loc 1 69 3 is_stmt 1 view .LVU18
 188              		.loc 1 69 65 is_stmt 0 view .LVU19
 189 005e 94F82450 		ldrb	r5, [r4, #36]	@ zero_extendqisi2
 190 0062 EDB2     		uxtb	r5, r5
 191              		.loc 1 69 3 view .LVU20
 192 0064 206A     		ldr	r0, [r4, #32]	@ float
 193 0066 FFF7FEFF 		bl	__aeabi_f2d
ARM GAS  /tmp/ccMK8rMR.s 			page 6


 194              	.LVL9:
 195 006a 0246     		mov	r2, r0
 196 006c 0B46     		mov	r3, r1
 197 006e 2946     		mov	r1, r5
 198 0070 2048     		ldr	r0, .L7+8
 199 0072 FFF7FEFF 		bl	printf
 200              	.LVL10:
  70:USER/Src/main.c ****          encoder_data_LEFT.total_distance);
  71:USER/Src/main.c **** 
  72:USER/Src/main.c ****   printf("=== RIGHT ENCODER DEBUG ===\r\n");
 201              		.loc 1 72 3 is_stmt 1 view .LVU21
 202 0076 2048     		ldr	r0, .L7+12
 203 0078 FFF7FEFF 		bl	puts
 204              	.LVL11:
  73:USER/Src/main.c ****   printf("Count: %d, Last_Count: %d, Delta: %d\r\n", encoder_data_RIGHT.count,
 205              		.loc 1 73 3 view .LVU22
  74:USER/Src/main.c ****          encoder_data_RIGHT.last_count, encoder_data_RIGHT.delta_count);
 206              		.loc 1 74 28 is_stmt 0 view .LVU23
 207 007c 1F4C     		ldr	r4, .L7+16
 208 007e 6268     		ldr	r2, [r4, #4]
 209              		.loc 1 74 59 view .LVU24
 210 0080 A368     		ldr	r3, [r4, #8]
  73:USER/Src/main.c ****   printf("Count: %d, Last_Count: %d, Delta: %d\r\n", encoder_data_RIGHT.count,
 211              		.loc 1 73 3 view .LVU25
 212 0082 2168     		ldr	r1, [r4]
 213 0084 4846     		mov	r0, r9
 214 0086 FFF7FEFF 		bl	printf
 215              	.LVL12:
  75:USER/Src/main.c ****   printf("Speed - RPM: %.2f, RPS: %.4f, rad/s: %.4f, m/s: %.4f\r\n",
 216              		.loc 1 75 3 is_stmt 1 view .LVU26
  76:USER/Src/main.c ****          encoder_data_RIGHT.speed_rpm, encoder_data_RIGHT.speed_rps,
 217              		.loc 1 76 28 is_stmt 0 view .LVU27
 218 008a E068     		ldr	r0, [r4, #12]	@ float
 219              		.loc 1 76 58 view .LVU28
 220 008c 2569     		ldr	r5, [r4, #16]	@ float
  77:USER/Src/main.c ****          encoder_data_RIGHT.speed_rad_s, encoder_data_RIGHT.speed_m_s);
 221              		.loc 1 77 28 view .LVU29
 222 008e D4F81490 		ldr	r9, [r4, #20]	@ float
 223              		.loc 1 77 60 view .LVU30
 224 0092 D4F818A0 		ldr	r10, [r4, #24]	@ float
  75:USER/Src/main.c ****   printf("Speed - RPM: %.2f, RPS: %.4f, rad/s: %.4f, m/s: %.4f\r\n",
 225              		.loc 1 75 3 view .LVU31
 226 0096 FFF7FEFF 		bl	__aeabi_f2d
 227              	.LVL13:
 228 009a 0646     		mov	r6, r0
 229 009c 0F46     		mov	r7, r1
 230 009e 5046     		mov	r0, r10	@ float
 231 00a0 FFF7FEFF 		bl	__aeabi_f2d
 232              	.LVL14:
 233 00a4 CDE90401 		strd	r0, [sp, #16]
 234 00a8 4846     		mov	r0, r9	@ float
 235 00aa FFF7FEFF 		bl	__aeabi_f2d
 236              	.LVL15:
 237 00ae CDE90201 		strd	r0, [sp, #8]
 238 00b2 2846     		mov	r0, r5	@ float
 239 00b4 FFF7FEFF 		bl	__aeabi_f2d
 240              	.LVL16:
ARM GAS  /tmp/ccMK8rMR.s 			page 7


 241 00b8 CDE90001 		strd	r0, [sp]
 242 00bc 3246     		mov	r2, r6
 243 00be 3B46     		mov	r3, r7
 244 00c0 4046     		mov	r0, r8
 245 00c2 FFF7FEFF 		bl	printf
 246              	.LVL17:
  78:USER/Src/main.c ****   printf("Direction: %d, distance: %.4fm\r\n\r\n", encoder_data_RIGHT.direction,
 247              		.loc 1 78 3 is_stmt 1 view .LVU32
 248              		.loc 1 78 70 is_stmt 0 view .LVU33
 249 00c6 94F82450 		ldrb	r5, [r4, #36]	@ zero_extendqisi2
 250 00ca EDB2     		uxtb	r5, r5
 251              		.loc 1 78 3 view .LVU34
 252 00cc 206A     		ldr	r0, [r4, #32]	@ float
 253 00ce FFF7FEFF 		bl	__aeabi_f2d
 254              	.LVL18:
 255 00d2 0246     		mov	r2, r0
 256 00d4 0B46     		mov	r3, r1
 257 00d6 2946     		mov	r1, r5
 258 00d8 0948     		ldr	r0, .L7+20
 259 00da FFF7FEFF 		bl	printf
 260              	.LVL19:
  79:USER/Src/main.c ****          encoder_data_RIGHT.total_distance);
  80:USER/Src/main.c **** 
  81:USER/Src/main.c ****   printf("\r\n");
 261              		.loc 1 81 3 is_stmt 1 view .LVU35
 262 00de 0948     		ldr	r0, .L7+24
 263 00e0 FFF7FEFF 		bl	puts
 264              	.LVL20:
  82:USER/Src/main.c **** }
 265              		.loc 1 82 1 is_stmt 0 view .LVU36
 266 00e4 07B0     		add	sp, sp, #28
 267              	.LCFI5:
 268              		.cfi_def_cfa_offset 36
 269              		@ sp needed
 270 00e6 BDE8F08F 		pop	{r4, r5, r6, r7, r8, r9, r10, fp, pc}
 271              	.L8:
 272 00ea 00BF     		.align	2
 273              	.L7:
 274 00ec 00000000 		.word	.LC0
 275 00f0 00000000 		.word	encoder_data_LEFT
 276 00f4 7C000000 		.word	.LC3
 277 00f8 A0000000 		.word	.LC4
 278 00fc 00000000 		.word	encoder_data_RIGHT
 279 0100 C0000000 		.word	.LC5
 280 0104 E4000000 		.word	.LC6
 281 0108 1C000000 		.word	.LC1
 282 010c 44000000 		.word	.LC2
 283              		.cfi_endproc
 284              	.LFE130:
 286              		.section	.rodata.my_console_logger.str1.4,"aMS",%progbits,1
 287              		.align	2
 288              	.LC7:
 289 0000 2573205B 		.ascii	"%s [%s]: %s\000"
 289      25735D3A 
 289      20257300 
 290              		.section	.text.my_console_logger,"ax",%progbits
 291              		.align	1
ARM GAS  /tmp/ccMK8rMR.s 			page 8


 292              		.global	my_console_logger
 293              		.syntax unified
 294              		.thumb
 295              		.thumb_func
 297              	my_console_logger:
 298              	.LVL21:
 299              	.LFB126:
  21:USER/Src/main.c ****   printf("%s [%s]: %s",
 300              		.loc 1 21 64 is_stmt 1 view -0
 301              		.cfi_startproc
 302              		@ args = 0, pretend = 0, frame = 0
 303              		@ frame_needed = 0, uses_anonymous_args = 0
  21:USER/Src/main.c ****   printf("%s [%s]: %s",
 304              		.loc 1 21 64 is_stmt 0 view .LVU38
 305 0000 70B5     		push	{r4, r5, r6, lr}
 306              	.LCFI6:
 307              		.cfi_def_cfa_offset 16
 308              		.cfi_offset 4, -16
 309              		.cfi_offset 5, -12
 310              		.cfi_offset 6, -8
 311              		.cfi_offset 14, -4
 312 0002 0646     		mov	r6, r0
 313 0004 0D46     		mov	r5, r1
  22:USER/Src/main.c ****          RTC_GetNowTime(), // user defined function
 314              		.loc 1 22 3 is_stmt 1 view .LVU39
 315 0006 FFF7FEFF 		bl	RTC_GetNowTime
 316              	.LVL22:
  22:USER/Src/main.c ****          RTC_GetNowTime(), // user defined function
 317              		.loc 1 22 3 is_stmt 0 view .LVU40
 318 000a 0446     		mov	r4, r0
  22:USER/Src/main.c ****          RTC_GetNowTime(), // user defined function
 319              		.loc 1 22 3 discriminator 1 view .LVU41
 320 000c 3046     		mov	r0, r6
 321 000e FFF7FEFF 		bl	ulog_level_name
 322              	.LVL23:
 323 0012 0246     		mov	r2, r0
  22:USER/Src/main.c ****          RTC_GetNowTime(), // user defined function
 324              		.loc 1 22 3 discriminator 2 view .LVU42
 325 0014 2B46     		mov	r3, r5
 326 0016 2146     		mov	r1, r4
 327 0018 0148     		ldr	r0, .L11
 328 001a FFF7FEFF 		bl	printf
 329              	.LVL24:
  25:USER/Src/main.c **** 
 330              		.loc 1 25 1 view .LVU43
 331 001e 70BD     		pop	{r4, r5, r6, pc}
 332              	.LVL25:
 333              	.L12:
  25:USER/Src/main.c **** 
 334              		.loc 1 25 1 view .LVU44
 335              		.align	2
 336              	.L11:
 337 0020 00000000 		.word	.LC7
 338              		.cfi_endproc
 339              	.LFE126:
 341              		.section	.text.speed_control_task,"ax",%progbits
 342              		.align	1
ARM GAS  /tmp/ccMK8rMR.s 			page 9


 343              		.global	speed_control_task
 344              		.syntax unified
 345              		.thumb
 346              		.thumb_func
 348              	speed_control_task:
 349              	.LFB127:
  28:USER/Src/main.c ****   // 更新右轮速度环PID控制器
 350              		.loc 1 28 31 is_stmt 1 view -0
 351              		.cfi_startproc
 352              		@ args = 0, pretend = 0, frame = 0
 353              		@ frame_needed = 0, uses_anonymous_args = 0
 354 0000 08B5     		push	{r3, lr}
 355              	.LCFI7:
 356              		.cfi_def_cfa_offset 8
 357              		.cfi_offset 3, -8
 358              		.cfi_offset 14, -4
  30:USER/Src/main.c **** 
 359              		.loc 1 30 3 view .LVU46
 360 0002 0348     		ldr	r0, .L15
 361 0004 FFF7FEFF 		bl	Speed_PID_Update
 362              	.LVL26:
  33:USER/Src/main.c **** }
 363              		.loc 1 33 3 view .LVU47
 364 0008 0248     		ldr	r0, .L15+4
 365 000a FFF7FEFF 		bl	Speed_PID_Update
 366              	.LVL27:
  34:USER/Src/main.c **** 
 367              		.loc 1 34 1 is_stmt 0 view .LVU48
 368 000e 08BD     		pop	{r3, pc}
 369              	.L16:
 370              		.align	2
 371              	.L15:
 372 0010 00000000 		.word	Speed_PID_Right
 373 0014 00000000 		.word	Speed_PID_Left
 374              		.cfi_endproc
 375              	.LFE127:
 377              		.section	.text.motor_test,"ax",%progbits
 378              		.align	1
 379              		.global	motor_test
 380              		.syntax unified
 381              		.thumb
 382              		.thumb_func
 384              	motor_test:
 385              	.LFB128:
  36:USER/Src/main.c ****   Motor_SetSpeed(MOTOR_LEFT, 4000);  // 左电机正转，速度 4000
 386              		.loc 1 36 23 is_stmt 1 view -0
 387              		.cfi_startproc
 388              		@ args = 0, pretend = 0, frame = 0
 389              		@ frame_needed = 0, uses_anonymous_args = 0
 390 0000 08B5     		push	{r3, lr}
 391              	.LCFI8:
 392              		.cfi_def_cfa_offset 8
 393              		.cfi_offset 3, -8
 394              		.cfi_offset 14, -4
  37:USER/Src/main.c ****   Motor_SetSpeed(MOTOR_RIGHT, 4000); // 右电机正转，速度 4000
 395              		.loc 1 37 3 view .LVU50
 396 0002 4FF47A61 		mov	r1, #4000
ARM GAS  /tmp/ccMK8rMR.s 			page 10


 397 0006 0120     		movs	r0, #1
 398 0008 FFF7FEFF 		bl	Motor_SetSpeed
 399              	.LVL28:
  38:USER/Src/main.c ****   Motor_SetDirection(MOTOR_LEFT, MOTOR_DIR_FORWARD);
 400              		.loc 1 38 3 view .LVU51
 401 000c 4FF47A61 		mov	r1, #4000
 402 0010 0020     		movs	r0, #0
 403 0012 FFF7FEFF 		bl	Motor_SetSpeed
 404              	.LVL29:
  39:USER/Src/main.c ****   Motor_SetDirection(MOTOR_RIGHT, MOTOR_DIR_BACKWARD);
 405              		.loc 1 39 3 view .LVU52
 406 0016 0121     		movs	r1, #1
 407 0018 0846     		mov	r0, r1
 408 001a FFF7FEFF 		bl	Motor_SetDirection
 409              	.LVL30:
  40:USER/Src/main.c **** 
 410              		.loc 1 40 3 view .LVU53
 411 001e 0221     		movs	r1, #2
 412 0020 0020     		movs	r0, #0
 413 0022 FFF7FEFF 		bl	Motor_SetDirection
 414              	.LVL31:
  43:USER/Src/main.c ****   Motor_Update(MOTOR_RIGHT);
 415              		.loc 1 43 3 view .LVU54
 416 0026 0120     		movs	r0, #1
 417 0028 FFF7FEFF 		bl	Motor_Update
 418              	.LVL32:
  44:USER/Src/main.c **** }
 419              		.loc 1 44 3 view .LVU55
 420 002c 0020     		movs	r0, #0
 421 002e FFF7FEFF 		bl	Motor_Update
 422              	.LVL33:
  45:USER/Src/main.c **** 
 423              		.loc 1 45 1 is_stmt 0 view .LVU56
 424 0032 08BD     		pop	{r3, pc}
 425              		.cfi_endproc
 426              	.LFE128:
 428              		.section	.rodata.main.str1.4,"aMS",%progbits,1
 429              		.align	2
 430              	.LC8:
 431 0000 68656C6C 		.ascii	"hello world\015\000"
 431      6F20776F 
 431      726C640D 
 431      00
 432              		.section	.text.main,"ax",%progbits
 433              		.align	1
 434              		.global	main
 435              		.syntax unified
 436              		.thumb
 437              		.thumb_func
 439              	main:
 440              	.LFB131:
  83:USER/Src/main.c **** // ... existing code ...
  84:USER/Src/main.c **** int main() {
 441              		.loc 1 84 12 is_stmt 1 view -0
 442              		.cfi_startproc
 443              		@ args = 0, pretend = 0, frame = 0
 444              		@ frame_needed = 0, uses_anonymous_args = 0
ARM GAS  /tmp/ccMK8rMR.s 			page 11


 445 0000 08B5     		push	{r3, lr}
 446              	.LCFI9:
 447              		.cfi_def_cfa_offset 8
 448              		.cfi_offset 3, -8
 449              		.cfi_offset 14, -4
  85:USER/Src/main.c ****   int arg = 42;
 450              		.loc 1 85 3 view .LVU58
 451              	.LVL34:
  86:USER/Src/main.c ****   led_Init();
 452              		.loc 1 86 3 view .LVU59
 453 0002 FFF7FEFF 		bl	led_Init
 454              	.LVL35:
  87:USER/Src/main.c ****   LED_Off();
 455              		.loc 1 87 3 view .LVU60
 456 0006 FFF7FEFF 		bl	LED_Off
 457              	.LVL36:
  88:USER/Src/main.c ****   Motor_Driver_Init();
 458              		.loc 1 88 3 view .LVU61
 459 000a FFF7FEFF 		bl	Motor_Driver_Init
 460              	.LVL37:
  89:USER/Src/main.c ****   // motor_test();
  90:USER/Src/main.c **** 
  91:USER/Src/main.c ****   // 初始化编码器模块
  92:USER/Src/main.c ****   Encoder_Driver_Init();
 461              		.loc 1 92 3 view .LVU62
 462 000e FFF7FEFF 		bl	Encoder_Driver_Init
 463              	.LVL38:
  93:USER/Src/main.c **** 
  94:USER/Src/main.c ****   // 初始化任务调度系统
  95:USER/Src/main.c ****   Task_Init();
 464              		.loc 1 95 3 view .LVU63
 465 0012 FFF7FEFF 		bl	Task_Init
 466              	.LVL39:
  96:USER/Src/main.c ****   /*
  97:USER/Src/main.c **** 
  98:USER/Src/main.c ****     // 初始化速度环PID控制器
  99:USER/Src/main.c ****     // 右轮: 关联ENCODER_RIGHT编码器和MOTOR_RIGHT电机
 100:USER/Src/main.c ****     Speed_PID_Init(&Speed_PID_Right, ENCODER_RIGHT, MOTOR_RIGHT,
 101:USER/Src/main.c ****                    SPEED_PID_KP_DEFAULT, SPEED_PID_KI_DEFAULT,
 102:USER/Src/main.c ****                    SPEED_PID_KD_DEFAULT);
 103:USER/Src/main.c **** 
 104:USER/Src/main.c ****     // 左轮: 关联ENCODER_LEFT编码器和MOTOR_LEFT电机
 105:USER/Src/main.c ****     Speed_PID_Init(&Speed_PID_Left, ENCODER_LEFT, MOTOR_LEFT,
 106:USER/Src/main.c ****                    SPEED_PID_KP_DEFAULT, SPEED_PID_KI_DEFAULT,
 107:USER/Src/main.c ****                    SPEED_PID_KD_DEFAULT);
 108:USER/Src/main.c **** 
 109:USER/Src/main.c ****     // 设置目标速度（例如0.5m/s）
 110:USER/Src/main.c ****     Speed_PID_SetTargetSpeed(&Speed_PID_Right, 0.5f);
 111:USER/Src/main.c ****     Speed_PID_SetTargetSpeed(&Speed_PID_Left, 0.5f);
 112:USER/Src/main.c **** 
 113:USER/Src/main.c ****     // 启用速度环PID控制
 114:USER/Src/main.c ****     Speed_PID_Enable(&Speed_PID_Right);
 115:USER/Src/main.c ****     Speed_PID_Enable(&Speed_PID_Left);
 116:USER/Src/main.c **** 
 117:USER/Src/main.c ****     // 添加10ms周期的速度控制任务
 118:USER/Src/main.c ****     add_task(speed_control_task, SPEED_PID_SAMPLE_PERIOD_MS);
 119:USER/Src/main.c ****     */
ARM GAS  /tmp/ccMK8rMR.s 			page 12


 120:USER/Src/main.c **** 
 121:USER/Src/main.c ****   UART1_Init();
 467              		.loc 1 121 3 view .LVU64
 468 0016 FFF7FEFF 		bl	UART1_Init
 469              	.LVL40:
 122:USER/Src/main.c ****   printf("hello world\r\n");
 470              		.loc 1 122 3 view .LVU65
 471 001a 0F48     		ldr	r0, .L22
 472 001c FFF7FEFF 		bl	puts
 473              	.LVL41:
 123:USER/Src/main.c **** 
 124:USER/Src/main.c ****   delay_init();
 474              		.loc 1 124 3 view .LVU66
 475 0020 FFF7FEFF 		bl	delay_init
 476              	.LVL42:
 125:USER/Src/main.c ****   Encoder_Data_t encoder_data;
 477              		.loc 1 125 3 view .LVU67
 126:USER/Src/main.c **** 
 127:USER/Src/main.c ****   // 添加任务
 128:USER/Src/main.c ****   add_task(print_encoderData, 200); // 每200ms执行一次
 478              		.loc 1 128 3 view .LVU68
 479 0024 C821     		movs	r1, #200
 480 0026 0D48     		ldr	r0, .L22+4
 481 0028 FFF7FEFF 		bl	add_task
 482              	.LVL43:
 129:USER/Src/main.c ****   add_task(encoder_upgrade, 5);     // 每5ms执行一次
 483              		.loc 1 129 3 view .LVU69
 484 002c 0521     		movs	r1, #5
 485 002e 0C48     		ldr	r0, .L22+8
 486 0030 FFF7FEFF 		bl	add_task
 487              	.LVL44:
 130:USER/Src/main.c **** 
 131:USER/Src/main.c ****   // 启动任务（将任务标记为就绪态）
 132:USER/Src/main.c ****   start_task(0); // print_encoderData
 488              		.loc 1 132 3 view .LVU70
 489 0034 0020     		movs	r0, #0
 490 0036 FFF7FEFF 		bl	start_task
 491              	.LVL45:
 133:USER/Src/main.c ****   start_task(1); // encoder_upgrade
 492              		.loc 1 133 3 view .LVU71
 493 003a 0120     		movs	r0, #1
 494 003c FFF7FEFF 		bl	start_task
 495              	.LVL46:
 496              	.L20:
 134:USER/Src/main.c **** 
 135:USER/Src/main.c ****   while (1) {
 497              		.loc 1 135 3 view .LVU72
 136:USER/Src/main.c ****     Task_Scheduler(); // 调度器执行就绪态任务
 498              		.loc 1 136 5 view .LVU73
 499 0040 FFF7FEFF 		bl	Task_Scheduler
 500              	.LVL47:
 137:USER/Src/main.c **** 
 138:USER/Src/main.c ****     // 其他主循环任务...
 139:USER/Src/main.c ****     GPIO_ToggleBits(GPIOC, 13);
 501              		.loc 1 139 5 view .LVU74
 502 0044 0D21     		movs	r1, #13
 503 0046 0748     		ldr	r0, .L22+12
ARM GAS  /tmp/ccMK8rMR.s 			page 13


 504 0048 FFF7FEFF 		bl	GPIO_ToggleBits
 505              	.LVL48:
 140:USER/Src/main.c ****     delay_ms(1000);
 506              		.loc 1 140 5 discriminator 1 view .LVU75
 507 004c 4FF47A70 		mov	r0, #1000
 508 0050 FFF7FEFF 		bl	delay_ms
 509              	.LVL49:
 135:USER/Src/main.c ****     Task_Scheduler(); // 调度器执行就绪态任务
 510              		.loc 1 135 9 view .LVU76
 511 0054 F4E7     		b	.L20
 512              	.L23:
 513 0056 00BF     		.align	2
 514              	.L22:
 515 0058 00000000 		.word	.LC8
 516 005c 00000000 		.word	print_encoderData
 517 0060 00000000 		.word	encoder_upgrade
 518 0064 00080240 		.word	1073874944
 519              		.cfi_endproc
 520              	.LFE131:
 522              		.global	encoder_data_RIGHT
 523              		.section	.bss.encoder_data_RIGHT,"aw",%nobits
 524              		.align	2
 527              	encoder_data_RIGHT:
 528 0000 00000000 		.space	52
 528      00000000 
 528      00000000 
 528      00000000 
 528      00000000 
 529              		.global	encoder_data_LEFT
 530              		.section	.bss.encoder_data_LEFT,"aw",%nobits
 531              		.align	2
 534              	encoder_data_LEFT:
 535 0000 00000000 		.space	52
 535      00000000 
 535      00000000 
 535      00000000 
 535      00000000 
 536              		.text
 537              	.Letext0:
 538              		.file 2 "/usr/lib/gcc/arm-none-eabi/13.2.1/include/stdint.h"
 539              		.file 3 "CMSIS/stm32f4xx.h"
 540              		.file 4 "MyHardWare/Inc/encoder.h"
 541              		.file 5 "MyHardWare/Inc/motor.h"
 542              		.file 6 "MyHardWare/Inc/pid_speed.h"
 543              		.file 7 "MyHardWare/Inc/ulog.h"
 544              		.file 8 "MyHardWare/Inc/delay.h"
 545              		.file 9 "Lib/StdPeriphs/inc/stm32f4xx_gpio.h"
 546              		.file 10 "MyHardWare/Inc/task.h"
 547              		.file 11 "MyHardWare/Inc/usart.h"
 548              		.file 12 "MyHardWare/Inc/led.h"
 549              		.file 13 "/usr/include/newlib/stdio.h"
 550              		.file 14 "MyHardWare/Inc/rtc.h"
 551              		.file 15 "<built-in>"
ARM GAS  /tmp/ccMK8rMR.s 			page 14


DEFINED SYMBOLS
                            *ABS*:00000000 main.c
     /tmp/ccMK8rMR.s:21     .text.encoder_upgrade:00000000 $t
     /tmp/ccMK8rMR.s:27     .text.encoder_upgrade:00000000 encoder_upgrade
     /tmp/ccMK8rMR.s:82     .text.encoder_upgrade:00000050 $d
     /tmp/ccMK8rMR.s:534    .bss.encoder_data_LEFT:00000000 encoder_data_LEFT
     /tmp/ccMK8rMR.s:527    .bss.encoder_data_RIGHT:00000000 encoder_data_RIGHT
     /tmp/ccMK8rMR.s:88     .rodata.print_encoderData.str1.4:00000000 $d
     /tmp/ccMK8rMR.s:112    .text.print_encoderData:00000000 $t
     /tmp/ccMK8rMR.s:118    .text.print_encoderData:00000000 print_encoderData
     /tmp/ccMK8rMR.s:274    .text.print_encoderData:000000ec $d
     /tmp/ccMK8rMR.s:287    .rodata.my_console_logger.str1.4:00000000 $d
     /tmp/ccMK8rMR.s:291    .text.my_console_logger:00000000 $t
     /tmp/ccMK8rMR.s:297    .text.my_console_logger:00000000 my_console_logger
     /tmp/ccMK8rMR.s:337    .text.my_console_logger:00000020 $d
     /tmp/ccMK8rMR.s:342    .text.speed_control_task:00000000 $t
     /tmp/ccMK8rMR.s:348    .text.speed_control_task:00000000 speed_control_task
     /tmp/ccMK8rMR.s:372    .text.speed_control_task:00000010 $d
     /tmp/ccMK8rMR.s:378    .text.motor_test:00000000 $t
     /tmp/ccMK8rMR.s:384    .text.motor_test:00000000 motor_test
     /tmp/ccMK8rMR.s:429    .rodata.main.str1.4:00000000 $d
     /tmp/ccMK8rMR.s:433    .text.main:00000000 $t
     /tmp/ccMK8rMR.s:439    .text.main:00000000 main
     /tmp/ccMK8rMR.s:515    .text.main:00000058 $d
     /tmp/ccMK8rMR.s:524    .bss.encoder_data_RIGHT:00000000 $d
     /tmp/ccMK8rMR.s:531    .bss.encoder_data_LEFT:00000000 $d

UNDEFINED SYMBOLS
Encoder_GetData
__aeabi_f2d
puts
printf
RTC_GetNowTime
ulog_level_name
Speed_PID_Update
Speed_PID_Right
Speed_PID_Left
Motor_SetSpeed
Motor_SetDirection
Motor_Update
led_Init
LED_Off
Motor_Driver_Init
Encoder_Driver_Init
Task_Init
UART1_Init
delay_init
add_task
start_task
Task_Scheduler
GPIO_ToggleBits
delay_ms
