ARM GAS  /tmp/cceW4WBu.s 			page 1


   1              		.cpu cortex-m4
   2              		.arch armv7e-m
   3              		.fpu fpv4-sp-d16
   4              		.eabi_attribute 27, 1
   5              		.eabi_attribute 28, 1
   6              		.eabi_attribute 20, 1
   7              		.eabi_attribute 21, 1
   8              		.eabi_attribute 23, 3
   9              		.eabi_attribute 24, 1
  10              		.eabi_attribute 25, 1
  11              		.eabi_attribute 26, 1
  12              		.eabi_attribute 30, 1
  13              		.eabi_attribute 34, 1
  14              		.eabi_attribute 18, 4
  15              		.file	"main.c"
  16              		.text
  17              	.Ltext0:
  18              		.cfi_sections	.debug_frame
  19              		.file 1 "USER/Src/main.c"
  20              		.section	.rodata.my_console_logger.str1.4,"aMS",%progbits,1
  21              		.align	2
  22              	.LC0:
  23 0000 2573205B 		.ascii	"%s [%s]: %s\000"
  23      25735D3A 
  23      20257300 
  24              		.section	.text.my_console_logger,"ax",%progbits
  25              		.align	1
  26              		.global	my_console_logger
  27              		.syntax unified
  28              		.thumb
  29              		.thumb_func
  31              	my_console_logger:
  32              	.LVL0:
  33              	.LFB126:
   1:USER/Src/main.c **** #include "delay.h"
   2:USER/Src/main.c **** #include "led.h"
   3:USER/Src/main.c **** #include "rtc.h"
   4:USER/Src/main.c **** #include "stm32f4xx_gpio.h"
   5:USER/Src/main.c **** #include "stm32f4xx_usart.h"
   6:USER/Src/main.c **** #include "ulog.h"
   7:USER/Src/main.c **** #include "usart.h"
   8:USER/Src/main.c **** #include <stdio.h>
   9:USER/Src/main.c **** #include <stm32f4xx.h>
  10:USER/Src/main.c **** #include <string.h>
  11:USER/Src/main.c **** 
  12:USER/Src/main.c **** void my_console_logger(ulog_level_t severity, const char *msg) {
  34              		.loc 1 12 64 view -0
  35              		.cfi_startproc
  36              		@ args = 0, pretend = 0, frame = 0
  37              		@ frame_needed = 0, uses_anonymous_args = 0
  38              		.loc 1 12 64 is_stmt 0 view .LVU1
  39 0000 70B5     		push	{r4, r5, r6, lr}
  40              	.LCFI0:
  41              		.cfi_def_cfa_offset 16
  42              		.cfi_offset 4, -16
  43              		.cfi_offset 5, -12
  44              		.cfi_offset 6, -8
ARM GAS  /tmp/cceW4WBu.s 			page 2


  45              		.cfi_offset 14, -4
  46 0002 0646     		mov	r6, r0
  47 0004 0D46     		mov	r5, r1
  13:USER/Src/main.c ****   printf("%s [%s]: %s",
  48              		.loc 1 13 3 is_stmt 1 view .LVU2
  49 0006 FFF7FEFF 		bl	RTC_GetNowTime
  50              	.LVL1:
  51              		.loc 1 13 3 is_stmt 0 view .LVU3
  52 000a 0446     		mov	r4, r0
  53              		.loc 1 13 3 discriminator 1 view .LVU4
  54 000c 3046     		mov	r0, r6
  55 000e FFF7FEFF 		bl	ulog_level_name
  56              	.LVL2:
  57 0012 0246     		mov	r2, r0
  58              		.loc 1 13 3 discriminator 2 view .LVU5
  59 0014 2B46     		mov	r3, r5
  60 0016 2146     		mov	r1, r4
  61 0018 0148     		ldr	r0, .L3
  62 001a FFF7FEFF 		bl	printf
  63              	.LVL3:
  14:USER/Src/main.c ****          RTC_GetNowTime(), // user defined function
  15:USER/Src/main.c ****          ulog_level_name(severity), msg);
  16:USER/Src/main.c **** }
  64              		.loc 1 16 1 view .LVU6
  65 001e 70BD     		pop	{r4, r5, r6, pc}
  66              	.LVL4:
  67              	.L4:
  68              		.loc 1 16 1 view .LVU7
  69              		.align	2
  70              	.L3:
  71 0020 00000000 		.word	.LC0
  72              		.cfi_endproc
  73              	.LFE126:
  75              		.section	.rodata.main.str1.4,"aMS",%progbits,1
  76              		.align	2
  77              	.LC1:
  78 0000 68656C6C 		.ascii	"hello world\015\000"
  78      6F20776F 
  78      726C640D 
  78      00
  79 000d 000000   		.align	2
  80              	.LC2:
  81 0010 66647366 		.ascii	"fdsfd\015\000"
  81      640D00
  82 0017 00       		.align	2
  83              	.LC3:
  84 0018 43726974 		.ascii	"Critical,arg=100\015\012\000"
  84      6963616C 
  84      2C617267 
  84      3D313030 
  84      0D0A00
  85 002b 00       		.align	2
  86              	.LC4:
  87 002c 43726974 		.ascii	"Critical, arg=%d\015\012\000"
  87      6963616C 
  87      2C206172 
  87      673D2564 
ARM GAS  /tmp/cceW4WBu.s 			page 3


  87      0D0A00
  88              		.section	.text.main,"ax",%progbits
  89              		.align	1
  90              		.global	main
  91              		.syntax unified
  92              		.thumb
  93              		.thumb_func
  95              	main:
  96              	.LFB127:
  17:USER/Src/main.c **** 
  18:USER/Src/main.c **** int main() {
  97              		.loc 1 18 12 is_stmt 1 view -0
  98              		.cfi_startproc
  99              		@ args = 0, pretend = 0, frame = 0
 100              		@ frame_needed = 0, uses_anonymous_args = 0
 101 0000 08B5     		push	{r3, lr}
 102              	.LCFI1:
 103              		.cfi_def_cfa_offset 8
 104              		.cfi_offset 3, -8
 105              		.cfi_offset 14, -4
  19:USER/Src/main.c ****   int arg = 42;
 106              		.loc 1 19 3 view .LVU9
 107              	.LVL5:
  20:USER/Src/main.c ****   led_Init();
 108              		.loc 1 20 3 view .LVU10
 109 0002 FFF7FEFF 		bl	led_Init
 110              	.LVL6:
  21:USER/Src/main.c ****   LED_Off();
 111              		.loc 1 21 3 view .LVU11
 112 0006 FFF7FEFF 		bl	LED_Off
 113              	.LVL7:
  22:USER/Src/main.c ****   USART1_Init();
 114              		.loc 1 22 3 view .LVU12
 115 000a FFF7FEFF 		bl	USART1_Init
 116              	.LVL8:
  23:USER/Src/main.c ****   printf("hello world\r\n");
 117              		.loc 1 23 3 view .LVU13
 118 000e 0F48     		ldr	r0, .L8
 119 0010 FFF7FEFF 		bl	puts
 120              	.LVL9:
  24:USER/Src/main.c ****   printf("fdsfd\r\n");
 121              		.loc 1 24 3 view .LVU14
 122 0014 0E48     		ldr	r0, .L8+4
 123 0016 FFF7FEFF 		bl	puts
 124              	.LVL10:
  25:USER/Src/main.c ****   ULOG_INIT();
 125              		.loc 1 25 3 view .LVU15
 126 001a FFF7FEFF 		bl	ulog_init
 127              	.LVL11:
  26:USER/Src/main.c ****   delay_init();
 128              		.loc 1 26 3 view .LVU16
 129 001e FFF7FEFF 		bl	delay_init
 130              	.LVL12:
  27:USER/Src/main.c **** 
  28:USER/Src/main.c ****   // log messages with a severity of WARNING or higher to the console.  The
  29:USER/Src/main.c ****   // user must supply a method for my_console_logger, e.g. along the lines
  30:USER/Src/main.c ****   // of what is shown above.
ARM GAS  /tmp/cceW4WBu.s 			page 4


  31:USER/Src/main.c **** 
  32:USER/Src/main.c ****   ULOG_SUBSCRIBE(my_console_logger, ULOG_WARNING_LEVEL);
 131              		.loc 1 32 3 view .LVU17
 132 0022 6721     		movs	r1, #103
 133 0024 0B48     		ldr	r0, .L8+8
 134 0026 FFF7FEFF 		bl	ulog_subscribe
 135              	.LVL13:
  33:USER/Src/main.c **** 
  34:USER/Src/main.c ****   ULOG_CRITICAL("Critical,arg=100\r\n");
 136              		.loc 1 34 3 view .LVU18
 137 002a 0B49     		ldr	r1, .L8+12
 138 002c 6920     		movs	r0, #105
 139 002e FFF7FEFF 		bl	ulog_message
 140              	.LVL14:
  35:USER/Src/main.c ****   ULOG_WARNING("Critical, arg=%d\r\n", arg); // logs to file and console
 141              		.loc 1 35 3 view .LVU19
 142 0032 2A22     		movs	r2, #42
 143 0034 0949     		ldr	r1, .L8+16
 144 0036 6720     		movs	r0, #103
 145 0038 FFF7FEFF 		bl	ulog_message
 146              	.LVL15:
 147              	.L6:
  36:USER/Src/main.c ****   while (1) {
 148              		.loc 1 36 3 view .LVU20
  37:USER/Src/main.c **** 
  38:USER/Src/main.c ****     GPIO_ToggleBits(GPIOC, 13);
 149              		.loc 1 38 5 view .LVU21
 150 003c 0D21     		movs	r1, #13
 151 003e 0848     		ldr	r0, .L8+20
 152 0040 FFF7FEFF 		bl	GPIO_ToggleBits
 153              	.LVL16:
  39:USER/Src/main.c ****     delay_ms(100);
 154              		.loc 1 39 5 discriminator 1 view .LVU22
 155 0044 6420     		movs	r0, #100
 156 0046 FFF7FEFF 		bl	delay_ms
 157              	.LVL17:
  36:USER/Src/main.c ****   while (1) {
 158              		.loc 1 36 9 view .LVU23
 159 004a F7E7     		b	.L6
 160              	.L9:
 161              		.align	2
 162              	.L8:
 163 004c 00000000 		.word	.LC1
 164 0050 10000000 		.word	.LC2
 165 0054 00000000 		.word	my_console_logger
 166 0058 18000000 		.word	.LC3
 167 005c 2C000000 		.word	.LC4
 168 0060 00080240 		.word	1073874944
 169              		.cfi_endproc
 170              	.LFE127:
 172              		.text
 173              	.Letext0:
 174              		.file 2 "/usr/lib/gcc/arm-none-eabi/13.2.1/include/stdint.h"
 175              		.file 3 "CMSIS/stm32f4xx.h"
 176              		.file 4 "MyHardWare/Inc/ulog.h"
 177              		.file 5 "MyHardWare/Inc/delay.h"
 178              		.file 6 "Lib/StdPeriphs/inc/stm32f4xx_gpio.h"
ARM GAS  /tmp/cceW4WBu.s 			page 5


 179              		.file 7 "MyHardWare/Inc/usart.h"
 180              		.file 8 "MyHardWare/Inc/led.h"
 181              		.file 9 "/usr/include/newlib/stdio.h"
 182              		.file 10 "MyHardWare/Inc/rtc.h"
 183              		.file 11 "<built-in>"
ARM GAS  /tmp/cceW4WBu.s 			page 6

