ARM GAS  /tmp/ccyS6A11.s 			page 1


   1              		.cpu cortex-m4
   2              		.arch armv7e-m
   3              		.fpu fpv4-sp-d16
   4              		.eabi_attribute 27, 1
   5              		.eabi_attribute 28, 1
   6              		.eabi_attribute 20, 1
   7              		.eabi_attribute 21, 1
   8              		.eabi_attribute 23, 3
   9              		.eabi_attribute 24, 1
  10              		.eabi_attribute 25, 1
  11              		.eabi_attribute 26, 1
  12              		.eabi_attribute 30, 1
  13              		.eabi_attribute 34, 1
  14              		.eabi_attribute 18, 4
  15              		.file	"pid_speed.c"
  16              		.text
  17              	.Ltext0:
  18              		.cfi_sections	.debug_frame
  19              		.file 1 "MyHardWare/Src/pid_speed.c"
  20              		.section	.text.pid_init,"ax",%progbits
  21              		.align	1
  22              		.syntax unified
  23              		.thumb
  24              		.thumb_func
  26              	pid_init:
  27              	.LVL0:
  28              	.LFB130:
   1:MyHardWare/Src/pid_speed.c **** #include "pid_speed.h"
   2:MyHardWare/Src/pid_speed.c **** #include "delay.h"
   3:MyHardWare/Src/pid_speed.c **** 
   4:MyHardWare/Src/pid_speed.c **** /* ==================== ه…¨ه±€هڈکé‡ڈه®ڑن¹‰ ==================== */
   5:MyHardWare/Src/pid_speed.c **** // و”¹ن¸؛ه¤–éƒ¨ه¼•ç”¨ï¼Œهœ¨main.cن¸­ه®ڑن¹‰
   6:MyHardWare/Src/pid_speed.c **** Speed_PID_Controller_t Speed_PID_Right; // هڈ³è½®é€ںه؛¦PIDوژ§هˆ¶ه™¨
   7:MyHardWare/Src/pid_speed.c **** Speed_PID_Controller_t Speed_PID_Left;  // ه·¦è½®é€ںه؛¦PIDوژ§هˆ¶ه™¨
   8:MyHardWare/Src/pid_speed.c **** 
   9:MyHardWare/Src/pid_speed.c **** /* ==================== ç§پوœ‰ه‡½و•°ه£°وکژ ==================== */
  10:MyHardWare/Src/pid_speed.c **** static float get_encoder_speed_m_s(Encoder_Id_e encoder_id);
  11:MyHardWare/Src/pid_speed.c **** static void update_motor_output(Speed_PID_Controller_t *controller,
  12:MyHardWare/Src/pid_speed.c ****                                 float output);
  13:MyHardWare/Src/pid_speed.c **** static void pid_init(PID_State_t *pid, float target, float kp, float ki,
  14:MyHardWare/Src/pid_speed.c ****                      float kd);
  15:MyHardWare/Src/pid_speed.c **** 
  16:MyHardWare/Src/pid_speed.c **** /* ==================== ه…¬وœ‰ه‡½و•°ه®‍çژ° ==================== */
  17:MyHardWare/Src/pid_speed.c **** 
  18:MyHardWare/Src/pid_speed.c **** /**
  19:MyHardWare/Src/pid_speed.c ****  * @brief هˆ‌ه§‹هŒ–é€ںه؛¦çژ¯PIDوژ§هˆ¶ه™¨
  20:MyHardWare/Src/pid_speed.c ****  * @param controller وژ§هˆ¶ه™¨ه®‍ن¾‹وŒ‡é’ˆ 
  21:MyHardWare/Src/pid_speed.c ****  * @param encoder_id ه…³èپ”çڑ„ç¼–ç په™¨ID
  22:MyHardWare/Src/pid_speed.c ****  * @param motor_id ه…³èپ”çڑ„ç”µوœ؛ID
  23:MyHardWare/Src/pid_speed.c ****  * @param kp و¯”ن¾‹ç³»و•°
  24:MyHardWare/Src/pid_speed.c ****  * @param ki ç§¯هˆ†ç³»و•°
  25:MyHardWare/Src/pid_speed.c ****  * @param kd ه¾®هˆ†ç³»و•°
  26:MyHardWare/Src/pid_speed.c ****  */
  27:MyHardWare/Src/pid_speed.c **** void Speed_PID_Init(Speed_PID_Controller_t *controller, Encoder_Id_e encoder_id,
  28:MyHardWare/Src/pid_speed.c ****                     Motor_Id_e motor_id, float kp, float ki, float kd) {
  29:MyHardWare/Src/pid_speed.c ****   // هڈ‚و•°و£€وں¥
  30:MyHardWare/Src/pid_speed.c ****   if (controller == NULL || encoder_id >= ENCODER_MAX ||
ARM GAS  /tmp/ccyS6A11.s 			page 2


  31:MyHardWare/Src/pid_speed.c ****       motor_id >= MOTOR_MAX) {
  32:MyHardWare/Src/pid_speed.c ****     return;
  33:MyHardWare/Src/pid_speed.c ****   }
  34:MyHardWare/Src/pid_speed.c **** 
  35:MyHardWare/Src/pid_speed.c ****   // هˆ‌ه§‹هŒ–PIDهڈ‚و•°ه’Œçٹ¶و€پ
  36:MyHardWare/Src/pid_speed.c ****   pid_init(&controller->pid_state, 0.0f, kp, ki, kd);
  37:MyHardWare/Src/pid_speed.c **** 
  38:MyHardWare/Src/pid_speed.c ****   // è®¾ç½®ه…³èپ”çڑ„ç¼–ç په™¨ه’Œç”µوœ؛
  39:MyHardWare/Src/pid_speed.c ****   controller->encoder_id = encoder_id;
  40:MyHardWare/Src/pid_speed.c ****   controller->motor_id = motor_id;
  41:MyHardWare/Src/pid_speed.c **** 
  42:MyHardWare/Src/pid_speed.c ****   // هˆ‌ه§‹هŒ–ه…¶ن»–هڈ‚و•°
  43:MyHardWare/Src/pid_speed.c ****   controller->target_speed_m_s = 0.0f;
  44:MyHardWare/Src/pid_speed.c ****   controller->current_speed_m_s = 0.0f;
  45:MyHardWare/Src/pid_speed.c ****   controller->enabled = 0;
  46:MyHardWare/Src/pid_speed.c ****   controller->last_update_time = GetSysTick();
  47:MyHardWare/Src/pid_speed.c **** }
  48:MyHardWare/Src/pid_speed.c **** 
  49:MyHardWare/Src/pid_speed.c **** /**
  50:MyHardWare/Src/pid_speed.c ****  * @brief è®¾ç½®é€ںه؛¦çژ¯PIDç›®و ‡é€ںه؛¦
  51:MyHardWare/Src/pid_speed.c ****  * @param controller وژ§هˆ¶ه™¨ه®‍ن¾‹وŒ‡é’ˆ
  52:MyHardWare/Src/pid_speed.c ****  * @param speed_m_s ç›®و ‡ç؛؟é€ںه؛¦ (m/s)
  53:MyHardWare/Src/pid_speed.c ****  */
  54:MyHardWare/Src/pid_speed.c **** void Speed_PID_SetTargetSpeed(Speed_PID_Controller_t *controller,
  55:MyHardWare/Src/pid_speed.c ****                               float speed_m_s) {
  56:MyHardWare/Src/pid_speed.c ****   // هڈ‚و•°و£€وں¥
  57:MyHardWare/Src/pid_speed.c ****   if (controller == NULL) {
  58:MyHardWare/Src/pid_speed.c ****     return;
  59:MyHardWare/Src/pid_speed.c ****   }
  60:MyHardWare/Src/pid_speed.c **** 
  61:MyHardWare/Src/pid_speed.c ****   // è®¾ç½®ç›®و ‡é€ںه؛¦
  62:MyHardWare/Src/pid_speed.c ****   controller->target_speed_m_s = speed_m_s;
  63:MyHardWare/Src/pid_speed.c ****   // و›´و–°PIDç›®و ‡ه€¼
  64:MyHardWare/Src/pid_speed.c ****   controller->pid_state.target_value = speed_m_s;
  65:MyHardWare/Src/pid_speed.c **** }
  66:MyHardWare/Src/pid_speed.c **** 
  67:MyHardWare/Src/pid_speed.c **** /**
  68:MyHardWare/Src/pid_speed.c ****  * @brief هگ¯ç”¨é€ںه؛¦çژ¯PIDوژ§هˆ¶
  69:MyHardWare/Src/pid_speed.c ****  * @param controller وژ§هˆ¶ه™¨ه®‍ن¾‹وŒ‡é’ˆ
  70:MyHardWare/Src/pid_speed.c ****  */
  71:MyHardWare/Src/pid_speed.c **** void Speed_PID_Enable(Speed_PID_Controller_t *controller) {
  72:MyHardWare/Src/pid_speed.c ****   // هڈ‚و•°و£€وں¥
  73:MyHardWare/Src/pid_speed.c ****   if (controller == NULL) {
  74:MyHardWare/Src/pid_speed.c ****     return;
  75:MyHardWare/Src/pid_speed.c ****   }
  76:MyHardWare/Src/pid_speed.c **** 
  77:MyHardWare/Src/pid_speed.c ****   // هگ¯ç”¨وژ§هˆ¶ه™¨
  78:MyHardWare/Src/pid_speed.c ****   controller->enabled = 1;
  79:MyHardWare/Src/pid_speed.c **** }
  80:MyHardWare/Src/pid_speed.c **** 
  81:MyHardWare/Src/pid_speed.c **** /**
  82:MyHardWare/Src/pid_speed.c ****  * @brief ç¦پç”¨é€ںه؛¦çژ¯PIDوژ§هˆ¶
  83:MyHardWare/Src/pid_speed.c ****  * @param controller وژ§هˆ¶ه™¨ه®‍ن¾‹وŒ‡é’ˆ
  84:MyHardWare/Src/pid_speed.c ****  */
  85:MyHardWare/Src/pid_speed.c **** void Speed_PID_Disable(Speed_PID_Controller_t *controller) {
  86:MyHardWare/Src/pid_speed.c ****   // هڈ‚و•°و£€وں¥
  87:MyHardWare/Src/pid_speed.c ****   if (controller == NULL) {
ARM GAS  /tmp/ccyS6A11.s 			page 3


  88:MyHardWare/Src/pid_speed.c ****     return;
  89:MyHardWare/Src/pid_speed.c ****   }
  90:MyHardWare/Src/pid_speed.c **** 
  91:MyHardWare/Src/pid_speed.c ****   // ç¦پç”¨وژ§هˆ¶ه™¨
  92:MyHardWare/Src/pid_speed.c ****   controller->enabled = 0;
  93:MyHardWare/Src/pid_speed.c **** 
  94:MyHardWare/Src/pid_speed.c ****   // هپœو­¢ç”µوœ؛
  95:MyHardWare/Src/pid_speed.c ****   update_motor_output(controller, 0.0f);
  96:MyHardWare/Src/pid_speed.c **** 
  97:MyHardWare/Src/pid_speed.c ****   // é‡چç½®ç§¯هˆ†é،¹ن»¥éک²و­¢ç§¯هˆ†é¥±ه’Œ
  98:MyHardWare/Src/pid_speed.c ****   controller->pid_state.last_integral_error = 0.0f;
  99:MyHardWare/Src/pid_speed.c **** }
 100:MyHardWare/Src/pid_speed.c **** 
 101:MyHardWare/Src/pid_speed.c **** /**
 102:MyHardWare/Src/pid_speed.c ****  * @brief و‰§è،Œé€ںه؛¦çژ¯PIDوژ§هˆ¶è®،ç®—
 103:MyHardWare/Src/pid_speed.c ****  * @param controller وژ§هˆ¶ه™¨ه®‍ن¾‹وŒ‡é’ˆ
 104:MyHardWare/Src/pid_speed.c ****  * @note ه؛”هœ¨10msوژ§هˆ¶ه¾ھçژ¯ن¸­è°ƒç”¨
 105:MyHardWare/Src/pid_speed.c ****  */
 106:MyHardWare/Src/pid_speed.c **** void Speed_PID_Update(Speed_PID_Controller_t *controller) {
 107:MyHardWare/Src/pid_speed.c ****   // هڈ‚و•°و£€وں¥
 108:MyHardWare/Src/pid_speed.c ****   if (controller == NULL || !controller->enabled) {
 109:MyHardWare/Src/pid_speed.c ****     return;
 110:MyHardWare/Src/pid_speed.c ****   }
 111:MyHardWare/Src/pid_speed.c **** 
 112:MyHardWare/Src/pid_speed.c ****   // è®،ç®—و—¶é—´é—´éڑ”ï¼ˆç§’ï¼‰
 113:MyHardWare/Src/pid_speed.c ****   uint32_t current_time = GetSysTick();
 114:MyHardWare/Src/pid_speed.c ****   float dt = (current_time - controller->last_update_time) / 1000.0f; // è½¬وچ¢ن¸؛ç§’
 115:MyHardWare/Src/pid_speed.c ****   
 116:MyHardWare/Src/pid_speed.c **** 
 117:MyHardWare/Src/pid_speed.c ****   // èژ·هڈ–ه½“ه‰چé€ںه؛¦
 118:MyHardWare/Src/pid_speed.c ****   controller->current_speed_m_s = get_encoder_speed_m_s(controller->encoder_id);
 119:MyHardWare/Src/pid_speed.c **** 
 120:MyHardWare/Src/pid_speed.c ****   // ن½؟ç”¨PIDç®—و³•è®،ç®—è¾“ه‡؛
 121:MyHardWare/Src/pid_speed.c ****   
 122:MyHardWare/Src/pid_speed.c ****   float error = controller->pid_state.target_value - controller->current_speed_m_s;//è®،ç®—è¯¯ه·®ه€
 123:MyHardWare/Src/pid_speed.c ****   float derivative = (error - controller->pid_state.last_error) / dt;//è®،ç®—ه¾®هˆ†é،¹
 124:MyHardWare/Src/pid_speed.c ****   float integral = (controller->pid_state.last_integral_error + error) * dt * 0.5f;//è®،ç®—ç§¯هˆ†é،
 125:MyHardWare/Src/pid_speed.c ****   float output = controller->pid_state.kp * error + controller->pid_state.ki *integral + controller
 126:MyHardWare/Src/pid_speed.c **** 
 127:MyHardWare/Src/pid_speed.c ****   // و›´و–°PIDçٹ¶و€پ
 128:MyHardWare/Src/pid_speed.c ****   controller->last_update_time = current_time; // و›´و–°و—¶é—´
 129:MyHardWare/Src/pid_speed.c ****   controller->pid_state.last_integral_error = integral;//و›´و–°ن¸ٹو¬،ç§¯هˆ†é،¹
 130:MyHardWare/Src/pid_speed.c ****   controller->pid_state.last_error = error;//و›´و–°ن¸ٹو¬،è¯¯ه·®é،¹
 131:MyHardWare/Src/pid_speed.c **** 
 132:MyHardWare/Src/pid_speed.c ****   // و›´و–°ç”µوœ؛è¾“ه‡؛
 133:MyHardWare/Src/pid_speed.c ****   update_motor_output(controller, output);
 134:MyHardWare/Src/pid_speed.c **** }
 135:MyHardWare/Src/pid_speed.c **** 
 136:MyHardWare/Src/pid_speed.c **** /* ==================== ç§پوœ‰ه‡½و•°ه®‍çژ° ==================== */
 137:MyHardWare/Src/pid_speed.c **** 
 138:MyHardWare/Src/pid_speed.c **** /**
 139:MyHardWare/Src/pid_speed.c ****  * @brief èژ·هڈ–ç¼–ç په™¨وµ‹é‡ڈçڑ„é€ںه؛¦ (m/s)
 140:MyHardWare/Src/pid_speed.c ****  * @param encoder_id ç¼–ç په™¨ID
 141:MyHardWare/Src/pid_speed.c ****  * @return ه½“ه‰چç؛؟é€ںه؛¦ (m/s)
 142:MyHardWare/Src/pid_speed.c ****  */
 143:MyHardWare/Src/pid_speed.c **** static float get_encoder_speed_m_s(Encoder_Id_e encoder_id) {
 144:MyHardWare/Src/pid_speed.c ****   // èژ·هڈ–ç¼–ç په™¨و•°وچ®
ARM GAS  /tmp/ccyS6A11.s 			page 4


 145:MyHardWare/Src/pid_speed.c ****   Encoder_Data_t encoder_data = Encoder_GetData(encoder_id);
 146:MyHardWare/Src/pid_speed.c **** 
 147:MyHardWare/Src/pid_speed.c ****   // è؟”ه›‍ç؛؟é€ںه؛¦
 148:MyHardWare/Src/pid_speed.c ****   return encoder_data.speed_m_s;
 149:MyHardWare/Src/pid_speed.c **** }
 150:MyHardWare/Src/pid_speed.c **** 
 151:MyHardWare/Src/pid_speed.c **** /**
 152:MyHardWare/Src/pid_speed.c ****  * @brief و›´و–°ç”µوœ؛è¾“ه‡؛
 153:MyHardWare/Src/pid_speed.c ****  * @param controller وژ§هˆ¶ه™¨ه®‍ن¾‹وŒ‡é’ˆ
 154:MyHardWare/Src/pid_speed.c ****  * @param output PIDè¾“ه‡؛ه€¼
 155:MyHardWare/Src/pid_speed.c ****  */
 156:MyHardWare/Src/pid_speed.c **** static void update_motor_output(Speed_PID_Controller_t *controller,
 157:MyHardWare/Src/pid_speed.c ****                                 float output) {
 158:MyHardWare/Src/pid_speed.c ****   // é™گهˆ¶è¾“ه‡؛èŒƒه›´
 159:MyHardWare/Src/pid_speed.c ****   if (output > SPEED_PID_OUTPUT_MAX) {
 160:MyHardWare/Src/pid_speed.c ****     output = SPEED_PID_OUTPUT_MAX;
 161:MyHardWare/Src/pid_speed.c ****   } else if (output < -SPEED_PID_OUTPUT_MAX) {
 162:MyHardWare/Src/pid_speed.c ****     output = -SPEED_PID_OUTPUT_MAX;
 163:MyHardWare/Src/pid_speed.c ****   }
 164:MyHardWare/Src/pid_speed.c **** 
 165:MyHardWare/Src/pid_speed.c ****   // و ¹وچ®è¾“ه‡؛ç¬¦هڈ·ç،®ه®ڑو–¹هگ‘
 166:MyHardWare/Src/pid_speed.c ****   Motor_Direction_e direction;
 167:MyHardWare/Src/pid_speed.c ****   if (output > 100) { // و­»هŒ؛è®¾ç½®
 168:MyHardWare/Src/pid_speed.c ****     direction = MOTOR_DIR_FORWARD;
 169:MyHardWare/Src/pid_speed.c ****   } else if (output < -100) {
 170:MyHardWare/Src/pid_speed.c ****     direction = MOTOR_DIR_BACKWARD;
 171:MyHardWare/Src/pid_speed.c ****   } else {
 172:MyHardWare/Src/pid_speed.c ****     direction = MOTOR_DIR_STOP;
 173:MyHardWare/Src/pid_speed.c ****     output = 0; // هپœو­¢و—¶è¾“ه‡؛ن¸؛0
 174:MyHardWare/Src/pid_speed.c ****   }
 175:MyHardWare/Src/pid_speed.c **** 
 176:MyHardWare/Src/pid_speed.c ****   // è®¾ç½®ç”µوœ؛و–¹هگ‘ه’Œé€ںه؛¦
 177:MyHardWare/Src/pid_speed.c ****   Motor_SetDirection(controller->motor_id, direction);
 178:MyHardWare/Src/pid_speed.c ****   Motor_SetSpeed(controller->motor_id, (int16_t)output);
 179:MyHardWare/Src/pid_speed.c **** 
 180:MyHardWare/Src/pid_speed.c ****   // و›´و–°ç،¬ن»¶
 181:MyHardWare/Src/pid_speed.c ****   Motor_Update(controller->motor_id);
 182:MyHardWare/Src/pid_speed.c **** }
 183:MyHardWare/Src/pid_speed.c **** 
 184:MyHardWare/Src/pid_speed.c **** /**
 185:MyHardWare/Src/pid_speed.c ****  * @brief PIDوژ§هˆ¶ه™¨هˆ‌ه§‹هŒ–ه‡½و•°
 186:MyHardWare/Src/pid_speed.c ****  * @param pid Pointer to the PID state structure
 187:MyHardWare/Src/pid_speed.c ****  * @param target Target value for the PID controller
 188:MyHardWare/Src/pid_speed.c ****  * @param kp Proportional gain
 189:MyHardWare/Src/pid_speed.c ****  * @param ki Integral gain
 190:MyHardWare/Src/pid_speed.c ****  * @param kd Derivative gain
 191:MyHardWare/Src/pid_speed.c ****  */
 192:MyHardWare/Src/pid_speed.c **** static void pid_init(PID_State_t *pid, float target, float kp, float ki,
 193:MyHardWare/Src/pid_speed.c ****                      float kd) {
  29              		.loc 1 193 32 view -0
  30              		.cfi_startproc
  31              		@ args = 0, pretend = 0, frame = 0
  32              		@ frame_needed = 0, uses_anonymous_args = 0
  33              		@ link register save eliminated.
 194:MyHardWare/Src/pid_speed.c ****   pid->target_value = target;
  34              		.loc 1 194 3 view .LVU1
  35              		.loc 1 194 21 is_stmt 0 view .LVU2
ARM GAS  /tmp/ccyS6A11.s 			page 5


  36 0000 80ED030A 		vstr.32	s0, [r0, #12]
 195:MyHardWare/Src/pid_speed.c ****   pid->kp = kp;
  37              		.loc 1 195 3 is_stmt 1 view .LVU3
  38              		.loc 1 195 11 is_stmt 0 view .LVU4
  39 0004 C0ED000A 		vstr.32	s1, [r0]
 196:MyHardWare/Src/pid_speed.c ****   pid->ki = ki;
  40              		.loc 1 196 3 is_stmt 1 view .LVU5
  41              		.loc 1 196 11 is_stmt 0 view .LVU6
  42 0008 80ED011A 		vstr.32	s2, [r0, #4]
 197:MyHardWare/Src/pid_speed.c ****   pid->kd = kd;
  43              		.loc 1 197 3 is_stmt 1 view .LVU7
  44              		.loc 1 197 11 is_stmt 0 view .LVU8
  45 000c C0ED021A 		vstr.32	s3, [r0, #8]
 198:MyHardWare/Src/pid_speed.c ****   pid->last_integral_error = 0.0f;
  46              		.loc 1 198 3 is_stmt 1 view .LVU9
  47              		.loc 1 198 28 is_stmt 0 view .LVU10
  48 0010 0023     		movs	r3, #0
  49 0012 0361     		str	r3, [r0, #16]	@ float
 199:MyHardWare/Src/pid_speed.c ****   pid->last_error = 0.0f;
  50              		.loc 1 199 3 is_stmt 1 view .LVU11
  51              		.loc 1 199 19 is_stmt 0 view .LVU12
  52 0014 4361     		str	r3, [r0, #20]	@ float
 200:MyHardWare/Src/pid_speed.c **** }
  53              		.loc 1 200 1 view .LVU13
  54 0016 7047     		bx	lr
  55              		.cfi_endproc
  56              	.LFE130:
  58              		.section	.text.update_motor_output,"ax",%progbits
  59              		.align	1
  60              		.syntax unified
  61              		.thumb
  62              		.thumb_func
  64              	update_motor_output:
  65              	.LVL1:
  66              	.LFB129:
 157:MyHardWare/Src/pid_speed.c ****   // é™گهˆ¶è¾“ه‡؛èŒƒه›´
  67              		.loc 1 157 47 is_stmt 1 view -0
  68              		.cfi_startproc
  69              		@ args = 0, pretend = 0, frame = 0
  70              		@ frame_needed = 0, uses_anonymous_args = 0
 157:MyHardWare/Src/pid_speed.c ****   // é™گهˆ¶è¾“ه‡؛èŒƒه›´
  71              		.loc 1 157 47 is_stmt 0 view .LVU15
  72 0000 10B5     		push	{r4, lr}
  73              	.LCFI0:
  74              		.cfi_def_cfa_offset 8
  75              		.cfi_offset 4, -8
  76              		.cfi_offset 14, -4
  77 0002 2DED028B 		vpush.64	{d8}
  78              	.LCFI1:
  79              		.cfi_def_cfa_offset 16
  80              		.cfi_offset 80, -16
  81              		.cfi_offset 81, -12
  82 0006 0446     		mov	r4, r0
 159:MyHardWare/Src/pid_speed.c ****     output = SPEED_PID_OUTPUT_MAX;
  83              		.loc 1 159 3 is_stmt 1 view .LVU16
 159:MyHardWare/Src/pid_speed.c ****     output = SPEED_PID_OUTPUT_MAX;
  84              		.loc 1 159 6 is_stmt 0 view .LVU17
ARM GAS  /tmp/ccyS6A11.s 			page 6


  85 0008 DFED1D7A 		vldr.32	s15, .L13
  86 000c B4EEE70A 		vcmpe.f32	s0, s15
  87 0010 F1EE10FA 		vmrs	APSR_nzcv, FPSCR
  88 0014 1CDC     		bgt	.L6
  89 0016 B0EE408A 		vmov.f32	s16, s0
 161:MyHardWare/Src/pid_speed.c ****     output = -SPEED_PID_OUTPUT_MAX;
  90              		.loc 1 161 10 is_stmt 1 view .LVU18
 161:MyHardWare/Src/pid_speed.c ****     output = -SPEED_PID_OUTPUT_MAX;
  91              		.loc 1 161 13 is_stmt 0 view .LVU19
  92 001a DFED1A7A 		vldr.32	s15, .L13+4
  93 001e B4EEE70A 		vcmpe.f32	s0, s15
  94 0022 F1EE10FA 		vmrs	APSR_nzcv, FPSCR
  95 0026 08D4     		bmi	.L7
 166:MyHardWare/Src/pid_speed.c ****   if (output > 100) { // و­»هŒ؛è®¾ç½®
  96              		.loc 1 166 3 is_stmt 1 view .LVU20
 167:MyHardWare/Src/pid_speed.c ****     direction = MOTOR_DIR_FORWARD;
  97              		.loc 1 167 3 view .LVU21
 167:MyHardWare/Src/pid_speed.c ****     direction = MOTOR_DIR_FORWARD;
  98              		.loc 1 167 6 is_stmt 0 view .LVU22
  99 0028 DFED177A 		vldr.32	s15, .L13+8
 100 002c B4EEE70A 		vcmpe.f32	s0, s15
 101 0030 F1EE10FA 		vmrs	APSR_nzcv, FPSCR
 102 0034 03DD     		ble	.L4
 168:MyHardWare/Src/pid_speed.c ****   } else if (output < -100) {
 103              		.loc 1 168 15 view .LVU23
 104 0036 0121     		movs	r1, #1
 105 0038 0DE0     		b	.L3
 106              	.L7:
 162:MyHardWare/Src/pid_speed.c ****   }
 107              		.loc 1 162 12 view .LVU24
 108 003a 9FED128A 		vldr.32	s16, .L13+4
 109              	.L4:
 110              	.LVL2:
 169:MyHardWare/Src/pid_speed.c ****     direction = MOTOR_DIR_BACKWARD;
 111              		.loc 1 169 10 is_stmt 1 view .LVU25
 169:MyHardWare/Src/pid_speed.c ****     direction = MOTOR_DIR_BACKWARD;
 112              		.loc 1 169 13 is_stmt 0 view .LVU26
 113 003e DFED137A 		vldr.32	s15, .L13+12
 114 0042 B4EEE78A 		vcmpe.f32	s16, s15
 115 0046 F1EE10FA 		vmrs	APSR_nzcv, FPSCR
 116 004a 15D5     		bpl	.L11
 170:MyHardWare/Src/pid_speed.c ****   } else {
 117              		.loc 1 170 15 view .LVU27
 118 004c 0221     		movs	r1, #2
 119 004e 02E0     		b	.L3
 120              	.LVL3:
 121              	.L6:
 168:MyHardWare/Src/pid_speed.c ****   } else if (output < -100) {
 122              		.loc 1 168 15 view .LVU28
 123 0050 0121     		movs	r1, #1
 160:MyHardWare/Src/pid_speed.c ****   } else if (output < -SPEED_PID_OUTPUT_MAX) {
 124              		.loc 1 160 12 view .LVU29
 125 0052 9FED0B8A 		vldr.32	s16, .L13
 126              	.LVL4:
 127              	.L3:
 177:MyHardWare/Src/pid_speed.c ****   Motor_SetSpeed(controller->motor_id, (int16_t)output);
 128              		.loc 1 177 3 is_stmt 1 view .LVU30
ARM GAS  /tmp/ccyS6A11.s 			page 7


 129 0056 6079     		ldrb	r0, [r4, #5]	@ zero_extendqisi2
 130              	.LVL5:
 177:MyHardWare/Src/pid_speed.c ****   Motor_SetSpeed(controller->motor_id, (int16_t)output);
 131              		.loc 1 177 3 is_stmt 0 view .LVU31
 132 0058 FFF7FEFF 		bl	Motor_SetDirection
 133              	.LVL6:
 178:MyHardWare/Src/pid_speed.c **** 
 134              		.loc 1 178 3 is_stmt 1 view .LVU32
 135 005c BDEEC88A 		vcvt.s32.f32	s16, s16
 136              	.LVL7:
 178:MyHardWare/Src/pid_speed.c **** 
 137              		.loc 1 178 3 is_stmt 0 view .LVU33
 138 0060 18EE103A 		vmov	r3, s16	@ int
 139 0064 19B2     		sxth	r1, r3
 140 0066 6079     		ldrb	r0, [r4, #5]	@ zero_extendqisi2
 141 0068 FFF7FEFF 		bl	Motor_SetSpeed
 142              	.LVL8:
 181:MyHardWare/Src/pid_speed.c **** }
 143              		.loc 1 181 3 is_stmt 1 view .LVU34
 144 006c 6079     		ldrb	r0, [r4, #5]	@ zero_extendqisi2
 145 006e FFF7FEFF 		bl	Motor_Update
 146              	.LVL9:
 182:MyHardWare/Src/pid_speed.c **** 
 147              		.loc 1 182 1 is_stmt 0 view .LVU35
 148 0072 BDEC028B 		vldm	sp!, {d8}
 149              	.LCFI2:
 150              		.cfi_remember_state
 151              		.cfi_restore 80
 152              		.cfi_restore 81
 153              		.cfi_def_cfa_offset 8
 154 0076 10BD     		pop	{r4, pc}
 155              	.LVL10:
 156              	.L11:
 157              	.LCFI3:
 158              		.cfi_restore_state
 172:MyHardWare/Src/pid_speed.c ****     output = 0; // هپœو­¢و—¶è¾“ه‡؛ن¸؛0
 159              		.loc 1 172 15 view .LVU36
 160 0078 0021     		movs	r1, #0
 173:MyHardWare/Src/pid_speed.c ****   }
 161              		.loc 1 173 12 view .LVU37
 162 007a 9FED058A 		vldr.32	s16, .L13+16
 163 007e EAE7     		b	.L3
 164              	.L14:
 165              		.align	2
 166              	.L13:
 167 0080 003C0346 		.word	1174617088
 168 0084 003C03C6 		.word	-972866560
 169 0088 0000C842 		.word	1120403456
 170 008c 0000C8C2 		.word	-1027080192
 171 0090 00000000 		.word	0
 172              		.cfi_endproc
 173              	.LFE129:
 175              		.section	.text.get_encoder_speed_m_s,"ax",%progbits
 176              		.align	1
 177              		.syntax unified
 178              		.thumb
 179              		.thumb_func
ARM GAS  /tmp/ccyS6A11.s 			page 8


 181              	get_encoder_speed_m_s:
 182              	.LVL11:
 183              	.LFB128:
 143:MyHardWare/Src/pid_speed.c ****   // èژ·هڈ–ç¼–ç په™¨و•°وچ®
 184              		.loc 1 143 61 is_stmt 1 view -0
 185              		.cfi_startproc
 186              		@ args = 0, pretend = 0, frame = 56
 187              		@ frame_needed = 0, uses_anonymous_args = 0
 143:MyHardWare/Src/pid_speed.c ****   // èژ·هڈ–ç¼–ç په™¨و•°وچ®
 188              		.loc 1 143 61 is_stmt 0 view .LVU39
 189 0000 00B5     		push	{lr}
 190              	.LCFI4:
 191              		.cfi_def_cfa_offset 4
 192              		.cfi_offset 14, -4
 193 0002 8FB0     		sub	sp, sp, #60
 194              	.LCFI5:
 195              		.cfi_def_cfa_offset 64
 196 0004 0146     		mov	r1, r0
 145:MyHardWare/Src/pid_speed.c **** 
 197              		.loc 1 145 3 is_stmt 1 view .LVU40
 145:MyHardWare/Src/pid_speed.c **** 
 198              		.loc 1 145 33 is_stmt 0 view .LVU41
 199 0006 01A8     		add	r0, sp, #4
 200              	.LVL12:
 145:MyHardWare/Src/pid_speed.c **** 
 201              		.loc 1 145 33 view .LVU42
 202 0008 FFF7FEFF 		bl	Encoder_GetData
 203              	.LVL13:
 148:MyHardWare/Src/pid_speed.c **** }
 204              		.loc 1 148 3 is_stmt 1 view .LVU43
 148:MyHardWare/Src/pid_speed.c **** }
 205              		.loc 1 148 22 is_stmt 0 view .LVU44
 206 000c 9DED070A 		vldr.32	s0, [sp, #28]
 149:MyHardWare/Src/pid_speed.c **** 
 207              		.loc 1 149 1 view .LVU45
 208 0010 0FB0     		add	sp, sp, #60
 209              	.LCFI6:
 210              		.cfi_def_cfa_offset 4
 211              		@ sp needed
 212 0012 5DF804FB 		ldr	pc, [sp], #4
 213              		.cfi_endproc
 214              	.LFE128:
 216              		.section	.text.Speed_PID_Init,"ax",%progbits
 217              		.align	1
 218              		.global	Speed_PID_Init
 219              		.syntax unified
 220              		.thumb
 221              		.thumb_func
 223              	Speed_PID_Init:
 224              	.LVL14:
 225              	.LFB123:
  28:MyHardWare/Src/pid_speed.c ****   // هڈ‚و•°و£€وں¥
 226              		.loc 1 28 72 is_stmt 1 view -0
 227              		.cfi_startproc
 228              		@ args = 0, pretend = 0, frame = 0
 229              		@ frame_needed = 0, uses_anonymous_args = 0
  30:MyHardWare/Src/pid_speed.c ****       motor_id >= MOTOR_MAX) {
ARM GAS  /tmp/ccyS6A11.s 			page 9


 230              		.loc 1 30 3 view .LVU47
  30:MyHardWare/Src/pid_speed.c ****       motor_id >= MOTOR_MAX) {
 231              		.loc 1 30 6 is_stmt 0 view .LVU48
 232 0000 28B3     		cbz	r0, .L20
  28:MyHardWare/Src/pid_speed.c ****   // هڈ‚و•°و£€وں¥
 233              		.loc 1 28 72 view .LVU49
 234 0002 70B5     		push	{r4, r5, r6, lr}
 235              	.LCFI7:
 236              		.cfi_def_cfa_offset 16
 237              		.cfi_offset 4, -16
 238              		.cfi_offset 5, -12
 239              		.cfi_offset 6, -8
 240              		.cfi_offset 14, -4
 241 0004 2DED028B 		vpush.64	{d8}
 242              	.LCFI8:
 243              		.cfi_def_cfa_offset 24
 244              		.cfi_offset 80, -24
 245              		.cfi_offset 81, -20
 246 0008 0C46     		mov	r4, r1
 247 000a 1546     		mov	r5, r2
 248 000c 0646     		mov	r6, r0
  30:MyHardWare/Src/pid_speed.c ****       motor_id >= MOTOR_MAX) {
 249              		.loc 1 30 26 discriminator 1 view .LVU50
 250 000e 0129     		cmp	r1, #1
 251 0010 01D8     		bhi	.L17
  30:MyHardWare/Src/pid_speed.c ****       motor_id >= MOTOR_MAX) {
 252              		.loc 1 30 55 discriminator 2 view .LVU51
 253 0012 012A     		cmp	r2, #1
 254 0014 02D9     		bls	.L23
 255              	.LVL15:
 256              	.L17:
  47:MyHardWare/Src/pid_speed.c **** 
 257              		.loc 1 47 1 view .LVU52
 258 0016 BDEC028B 		vldm	sp!, {d8}
 259              	.LCFI9:
 260              		.cfi_remember_state
 261              		.cfi_restore 80
 262              		.cfi_restore 81
 263              		.cfi_def_cfa_offset 16
 264 001a 70BD     		pop	{r4, r5, r6, pc}
 265              	.LVL16:
 266              	.L23:
 267              	.LCFI10:
 268              		.cfi_restore_state
  36:MyHardWare/Src/pid_speed.c **** 
 269              		.loc 1 36 3 is_stmt 1 view .LVU53
 270 001c 9FED0C8A 		vldr.32	s16, .L24
 271 0020 F0EE411A 		vmov.f32	s3, s2
 272 0024 B0EE601A 		vmov.f32	s2, s1
 273              	.LVL17:
  36:MyHardWare/Src/pid_speed.c **** 
 274              		.loc 1 36 3 is_stmt 0 view .LVU54
 275 0028 F0EE400A 		vmov.f32	s1, s0
 276              	.LVL18:
  36:MyHardWare/Src/pid_speed.c **** 
 277              		.loc 1 36 3 view .LVU55
 278 002c B0EE480A 		vmov.f32	s0, s16
ARM GAS  /tmp/ccyS6A11.s 			page 10


 279              	.LVL19:
  36:MyHardWare/Src/pid_speed.c **** 
 280              		.loc 1 36 3 view .LVU56
 281 0030 1430     		adds	r0, r0, #20
 282              	.LVL20:
  36:MyHardWare/Src/pid_speed.c **** 
 283              		.loc 1 36 3 view .LVU57
 284 0032 FFF7FEFF 		bl	pid_init
 285              	.LVL21:
  39:MyHardWare/Src/pid_speed.c ****   controller->motor_id = motor_id;
 286              		.loc 1 39 3 is_stmt 1 view .LVU58
  39:MyHardWare/Src/pid_speed.c ****   controller->motor_id = motor_id;
 287              		.loc 1 39 26 is_stmt 0 view .LVU59
 288 0036 3471     		strb	r4, [r6, #4]
  40:MyHardWare/Src/pid_speed.c **** 
 289              		.loc 1 40 3 is_stmt 1 view .LVU60
  40:MyHardWare/Src/pid_speed.c **** 
 290              		.loc 1 40 24 is_stmt 0 view .LVU61
 291 0038 7571     		strb	r5, [r6, #5]
  43:MyHardWare/Src/pid_speed.c ****   controller->current_speed_m_s = 0.0f;
 292              		.loc 1 43 3 is_stmt 1 view .LVU62
  43:MyHardWare/Src/pid_speed.c ****   controller->current_speed_m_s = 0.0f;
 293              		.loc 1 43 32 is_stmt 0 view .LVU63
 294 003a 86ED008A 		vstr.32	s16, [r6]
  44:MyHardWare/Src/pid_speed.c ****   controller->enabled = 0;
 295              		.loc 1 44 3 is_stmt 1 view .LVU64
  44:MyHardWare/Src/pid_speed.c ****   controller->enabled = 0;
 296              		.loc 1 44 33 is_stmt 0 view .LVU65
 297 003e 86ED028A 		vstr.32	s16, [r6, #8]
  45:MyHardWare/Src/pid_speed.c ****   controller->last_update_time = GetSysTick();
 298              		.loc 1 45 3 is_stmt 1 view .LVU66
  45:MyHardWare/Src/pid_speed.c ****   controller->last_update_time = GetSysTick();
 299              		.loc 1 45 23 is_stmt 0 view .LVU67
 300 0042 0023     		movs	r3, #0
 301 0044 3373     		strb	r3, [r6, #12]
  46:MyHardWare/Src/pid_speed.c **** }
 302              		.loc 1 46 3 is_stmt 1 view .LVU68
  46:MyHardWare/Src/pid_speed.c **** }
 303              		.loc 1 46 34 is_stmt 0 view .LVU69
 304 0046 FFF7FEFF 		bl	GetSysTick
 305              	.LVL22:
  46:MyHardWare/Src/pid_speed.c **** }
 306              		.loc 1 46 32 discriminator 1 view .LVU70
 307 004a 3061     		str	r0, [r6, #16]
 308 004c E3E7     		b	.L17
 309              	.LVL23:
 310              	.L20:
 311              	.LCFI11:
 312              		.cfi_def_cfa_offset 0
 313              		.cfi_restore 4
 314              		.cfi_restore 5
 315              		.cfi_restore 6
 316              		.cfi_restore 14
 317              		.cfi_restore 80
 318              		.cfi_restore 81
  46:MyHardWare/Src/pid_speed.c **** }
 319              		.loc 1 46 32 discriminator 1 view .LVU71
ARM GAS  /tmp/ccyS6A11.s 			page 11


 320 004e 7047     		bx	lr
 321              	.L25:
 322              		.align	2
 323              	.L24:
 324 0050 00000000 		.word	0
 325              		.cfi_endproc
 326              	.LFE123:
 328              		.section	.text.Speed_PID_SetTargetSpeed,"ax",%progbits
 329              		.align	1
 330              		.global	Speed_PID_SetTargetSpeed
 331              		.syntax unified
 332              		.thumb
 333              		.thumb_func
 335              	Speed_PID_SetTargetSpeed:
 336              	.LVL24:
 337              	.LFB124:
  55:MyHardWare/Src/pid_speed.c ****   // هڈ‚و•°و£€وں¥
 338              		.loc 1 55 48 is_stmt 1 view -0
 339              		.cfi_startproc
 340              		@ args = 0, pretend = 0, frame = 0
 341              		@ frame_needed = 0, uses_anonymous_args = 0
 342              		@ link register save eliminated.
  57:MyHardWare/Src/pid_speed.c ****     return;
 343              		.loc 1 57 3 view .LVU73
  57:MyHardWare/Src/pid_speed.c ****     return;
 344              		.loc 1 57 6 is_stmt 0 view .LVU74
 345 0000 18B1     		cbz	r0, .L26
  62:MyHardWare/Src/pid_speed.c ****   // و›´و–°PIDç›®و ‡ه€¼
 346              		.loc 1 62 3 is_stmt 1 view .LVU75
  62:MyHardWare/Src/pid_speed.c ****   // و›´و–°PIDç›®و ‡ه€¼
 347              		.loc 1 62 32 is_stmt 0 view .LVU76
 348 0002 80ED000A 		vstr.32	s0, [r0]
  64:MyHardWare/Src/pid_speed.c **** }
 349              		.loc 1 64 3 is_stmt 1 view .LVU77
  64:MyHardWare/Src/pid_speed.c **** }
 350              		.loc 1 64 38 is_stmt 0 view .LVU78
 351 0006 80ED080A 		vstr.32	s0, [r0, #32]
 352              	.L26:
  65:MyHardWare/Src/pid_speed.c **** 
 353              		.loc 1 65 1 view .LVU79
 354 000a 7047     		bx	lr
 355              		.cfi_endproc
 356              	.LFE124:
 358              		.section	.text.Speed_PID_Enable,"ax",%progbits
 359              		.align	1
 360              		.global	Speed_PID_Enable
 361              		.syntax unified
 362              		.thumb
 363              		.thumb_func
 365              	Speed_PID_Enable:
 366              	.LVL25:
 367              	.LFB125:
  71:MyHardWare/Src/pid_speed.c ****   // هڈ‚و•°و£€وں¥
 368              		.loc 1 71 59 is_stmt 1 view -0
 369              		.cfi_startproc
 370              		@ args = 0, pretend = 0, frame = 0
 371              		@ frame_needed = 0, uses_anonymous_args = 0
ARM GAS  /tmp/ccyS6A11.s 			page 12


 372              		@ link register save eliminated.
  73:MyHardWare/Src/pid_speed.c ****     return;
 373              		.loc 1 73 3 view .LVU81
  73:MyHardWare/Src/pid_speed.c ****     return;
 374              		.loc 1 73 6 is_stmt 0 view .LVU82
 375 0000 08B1     		cbz	r0, .L28
  78:MyHardWare/Src/pid_speed.c **** }
 376              		.loc 1 78 3 is_stmt 1 view .LVU83
  78:MyHardWare/Src/pid_speed.c **** }
 377              		.loc 1 78 23 is_stmt 0 view .LVU84
 378 0002 0122     		movs	r2, #1
 379 0004 0273     		strb	r2, [r0, #12]
 380              	.L28:
  79:MyHardWare/Src/pid_speed.c **** 
 381              		.loc 1 79 1 view .LVU85
 382 0006 7047     		bx	lr
 383              		.cfi_endproc
 384              	.LFE125:
 386              		.section	.text.Speed_PID_Disable,"ax",%progbits
 387              		.align	1
 388              		.global	Speed_PID_Disable
 389              		.syntax unified
 390              		.thumb
 391              		.thumb_func
 393              	Speed_PID_Disable:
 394              	.LVL26:
 395              	.LFB126:
  85:MyHardWare/Src/pid_speed.c ****   // هڈ‚و•°و£€وں¥
 396              		.loc 1 85 60 is_stmt 1 view -0
 397              		.cfi_startproc
 398              		@ args = 0, pretend = 0, frame = 0
 399              		@ frame_needed = 0, uses_anonymous_args = 0
  87:MyHardWare/Src/pid_speed.c ****     return;
 400              		.loc 1 87 3 view .LVU87
  87:MyHardWare/Src/pid_speed.c ****     return;
 401              		.loc 1 87 6 is_stmt 0 view .LVU88
 402 0000 80B1     		cbz	r0, .L33
  85:MyHardWare/Src/pid_speed.c ****   // هڈ‚و•°و£€وں¥
 403              		.loc 1 85 60 view .LVU89
 404 0002 10B5     		push	{r4, lr}
 405              	.LCFI12:
 406              		.cfi_def_cfa_offset 8
 407              		.cfi_offset 4, -8
 408              		.cfi_offset 14, -4
 409 0004 2DED028B 		vpush.64	{d8}
 410              	.LCFI13:
 411              		.cfi_def_cfa_offset 16
 412              		.cfi_offset 80, -16
 413              		.cfi_offset 81, -12
 414 0008 0446     		mov	r4, r0
  92:MyHardWare/Src/pid_speed.c **** 
 415              		.loc 1 92 3 is_stmt 1 view .LVU90
  92:MyHardWare/Src/pid_speed.c **** 
 416              		.loc 1 92 23 is_stmt 0 view .LVU91
 417 000a 0023     		movs	r3, #0
 418 000c 0373     		strb	r3, [r0, #12]
  95:MyHardWare/Src/pid_speed.c **** 
ARM GAS  /tmp/ccyS6A11.s 			page 13


 419              		.loc 1 95 3 is_stmt 1 view .LVU92
 420 000e 9FED068A 		vldr.32	s16, .L36
 421 0012 B0EE480A 		vmov.f32	s0, s16
 422 0016 FFF7FEFF 		bl	update_motor_output
 423              	.LVL27:
  98:MyHardWare/Src/pid_speed.c **** }
 424              		.loc 1 98 3 view .LVU93
  98:MyHardWare/Src/pid_speed.c **** }
 425              		.loc 1 98 45 is_stmt 0 view .LVU94
 426 001a 84ED098A 		vstr.32	s16, [r4, #36]
  99:MyHardWare/Src/pid_speed.c **** 
 427              		.loc 1 99 1 view .LVU95
 428 001e BDEC028B 		vldm	sp!, {d8}
 429              	.LCFI14:
 430              		.cfi_restore 80
 431              		.cfi_restore 81
 432              		.cfi_def_cfa_offset 8
 433 0022 10BD     		pop	{r4, pc}
 434              	.LVL28:
 435              	.L33:
 436              	.LCFI15:
 437              		.cfi_def_cfa_offset 0
 438              		.cfi_restore 4
 439              		.cfi_restore 14
  99:MyHardWare/Src/pid_speed.c **** 
 440              		.loc 1 99 1 view .LVU96
 441 0024 7047     		bx	lr
 442              	.L37:
 443 0026 00BF     		.align	2
 444              	.L36:
 445 0028 00000000 		.word	0
 446              		.cfi_endproc
 447              	.LFE126:
 449              		.section	.text.Speed_PID_Update,"ax",%progbits
 450              		.align	1
 451              		.global	Speed_PID_Update
 452              		.syntax unified
 453              		.thumb
 454              		.thumb_func
 456              	Speed_PID_Update:
 457              	.LVL29:
 458              	.LFB127:
 106:MyHardWare/Src/pid_speed.c ****   // هڈ‚و•°و£€وں¥
 459              		.loc 1 106 59 is_stmt 1 view -0
 460              		.cfi_startproc
 461              		@ args = 0, pretend = 0, frame = 0
 462              		@ frame_needed = 0, uses_anonymous_args = 0
 108:MyHardWare/Src/pid_speed.c ****     return;
 463              		.loc 1 108 3 view .LVU98
 108:MyHardWare/Src/pid_speed.c ****     return;
 464              		.loc 1 108 6 is_stmt 0 view .LVU99
 465 0000 0028     		cmp	r0, #0
 466 0002 47D0     		beq	.L41
 106:MyHardWare/Src/pid_speed.c ****   // هڈ‚و•°و£€وں¥
 467              		.loc 1 106 59 view .LVU100
 468 0004 38B5     		push	{r3, r4, r5, lr}
 469              	.LCFI16:
ARM GAS  /tmp/ccyS6A11.s 			page 14


 470              		.cfi_def_cfa_offset 16
 471              		.cfi_offset 3, -16
 472              		.cfi_offset 4, -12
 473              		.cfi_offset 5, -8
 474              		.cfi_offset 14, -4
 475 0006 2DED028B 		vpush.64	{d8}
 476              	.LCFI17:
 477              		.cfi_def_cfa_offset 24
 478              		.cfi_offset 80, -24
 479              		.cfi_offset 81, -20
 480 000a 0446     		mov	r4, r0
 108:MyHardWare/Src/pid_speed.c ****     return;
 481              		.loc 1 108 40 discriminator 1 view .LVU101
 482 000c 037B     		ldrb	r3, [r0, #12]	@ zero_extendqisi2
 108:MyHardWare/Src/pid_speed.c ****     return;
 483              		.loc 1 108 26 discriminator 1 view .LVU102
 484 000e 13B9     		cbnz	r3, .L44
 485              	.LVL30:
 486              	.L38:
 134:MyHardWare/Src/pid_speed.c **** 
 487              		.loc 1 134 1 view .LVU103
 488 0010 BDEC028B 		vldm	sp!, {d8}
 489              	.LCFI18:
 490              		.cfi_remember_state
 491              		.cfi_restore 80
 492              		.cfi_restore 81
 493              		.cfi_def_cfa_offset 16
 494 0014 38BD     		pop	{r3, r4, r5, pc}
 495              	.LVL31:
 496              	.L44:
 497              	.LCFI19:
 498              		.cfi_restore_state
 113:MyHardWare/Src/pid_speed.c ****   float dt = (current_time - controller->last_update_time) / 1000.0f; // è½¬وچ¢ن¸؛ç§’
 499              		.loc 1 113 3 is_stmt 1 view .LVU104
 113:MyHardWare/Src/pid_speed.c ****   float dt = (current_time - controller->last_update_time) / 1000.0f; // è½¬وچ¢ن¸؛ç§’
 500              		.loc 1 113 27 is_stmt 0 view .LVU105
 501 0016 FFF7FEFF 		bl	GetSysTick
 502              	.LVL32:
 113:MyHardWare/Src/pid_speed.c ****   float dt = (current_time - controller->last_update_time) / 1000.0f; // è½¬وچ¢ن¸؛ç§’
 503              		.loc 1 113 27 view .LVU106
 504 001a 0546     		mov	r5, r0
 505              	.LVL33:
 114:MyHardWare/Src/pid_speed.c ****   
 506              		.loc 1 114 3 is_stmt 1 view .LVU107
 114:MyHardWare/Src/pid_speed.c ****   
 507              		.loc 1 114 40 is_stmt 0 view .LVU108
 508 001c 2369     		ldr	r3, [r4, #16]
 114:MyHardWare/Src/pid_speed.c ****   
 509              		.loc 1 114 28 view .LVU109
 510 001e C31A     		subs	r3, r0, r3
 114:MyHardWare/Src/pid_speed.c ****   
 511              		.loc 1 114 60 view .LVU110
 512 0020 07EE903A 		vmov	s15, r3	@ int
 513 0024 F8EE677A 		vcvt.f32.u32	s15, s15
 114:MyHardWare/Src/pid_speed.c ****   
 514              		.loc 1 114 9 view .LVU111
 515 0028 9FED1B7A 		vldr.32	s14, .L45
ARM GAS  /tmp/ccyS6A11.s 			page 15


 516 002c 87EE878A 		vdiv.f32	s16, s15, s14
 517              	.LVL34:
 118:MyHardWare/Src/pid_speed.c **** 
 518              		.loc 1 118 3 is_stmt 1 view .LVU112
 118:MyHardWare/Src/pid_speed.c **** 
 519              		.loc 1 118 35 is_stmt 0 view .LVU113
 520 0030 2079     		ldrb	r0, [r4, #4]	@ zero_extendqisi2
 521              	.LVL35:
 118:MyHardWare/Src/pid_speed.c **** 
 522              		.loc 1 118 35 view .LVU114
 523 0032 FFF7FEFF 		bl	get_encoder_speed_m_s
 524              	.LVL36:
 118:MyHardWare/Src/pid_speed.c **** 
 525              		.loc 1 118 33 discriminator 1 view .LVU115
 526 0036 84ED020A 		vstr.32	s0, [r4, #8]
 122:MyHardWare/Src/pid_speed.c ****   float derivative = (error - controller->pid_state.last_error) / dt;//è®،ç®—ه¾®هˆ†é،¹
 527              		.loc 1 122 3 is_stmt 1 view .LVU116
 122:MyHardWare/Src/pid_speed.c ****   float derivative = (error - controller->pid_state.last_error) / dt;//è®،ç®—ه¾®هˆ†é،¹
 528              		.loc 1 122 38 is_stmt 0 view .LVU117
 529 003a 94ED087A 		vldr.32	s14, [r4, #32]
 122:MyHardWare/Src/pid_speed.c ****   float derivative = (error - controller->pid_state.last_error) / dt;//è®،ç®—ه¾®هˆ†é،¹
 530              		.loc 1 122 9 view .LVU118
 531 003e 37EE407A 		vsub.f32	s14, s14, s0
 532              	.LVL37:
 123:MyHardWare/Src/pid_speed.c ****   float integral = (controller->pid_state.last_integral_error + error) * dt * 0.5f;//è®،ç®—ç§¯هˆ†é،
 533              		.loc 1 123 3 is_stmt 1 view .LVU119
 123:MyHardWare/Src/pid_speed.c ****   float integral = (controller->pid_state.last_integral_error + error) * dt * 0.5f;//è®،ç®—ç§¯هˆ†é،
 534              		.loc 1 123 52 is_stmt 0 view .LVU120
 535 0042 D4ED0A7A 		vldr.32	s15, [r4, #40]
 123:MyHardWare/Src/pid_speed.c ****   float integral = (controller->pid_state.last_integral_error + error) * dt * 0.5f;//è®،ç®—ç§¯هˆ†é،
 536              		.loc 1 123 29 view .LVU121
 537 0046 77EE677A 		vsub.f32	s15, s14, s15
 123:MyHardWare/Src/pid_speed.c ****   float integral = (controller->pid_state.last_integral_error + error) * dt * 0.5f;//è®،ç®—ç§¯هˆ†é،
 538              		.loc 1 123 9 view .LVU122
 539 004a C7EE885A 		vdiv.f32	s11, s15, s16
 540              	.LVL38:
 124:MyHardWare/Src/pid_speed.c ****   float output = controller->pid_state.kp * error + controller->pid_state.ki *integral + controller
 541              		.loc 1 124 3 is_stmt 1 view .LVU123
 124:MyHardWare/Src/pid_speed.c ****   float output = controller->pid_state.kp * error + controller->pid_state.ki *integral + controller
 542              		.loc 1 124 42 is_stmt 0 view .LVU124
 543 004e D4ED097A 		vldr.32	s15, [r4, #36]
 124:MyHardWare/Src/pid_speed.c ****   float output = controller->pid_state.kp * error + controller->pid_state.ki *integral + controller
 544              		.loc 1 124 63 view .LVU125
 545 0052 77EE877A 		vadd.f32	s15, s15, s14
 124:MyHardWare/Src/pid_speed.c ****   float output = controller->pid_state.kp * error + controller->pid_state.ki *integral + controller
 546              		.loc 1 124 72 view .LVU126
 547 0056 67EE887A 		vmul.f32	s15, s15, s16
 124:MyHardWare/Src/pid_speed.c ****   float output = controller->pid_state.kp * error + controller->pid_state.ki *integral + controller
 548              		.loc 1 124 9 view .LVU127
 549 005a F6EE006A 		vmov.f32	s13, #5.0e-1
 550 005e 67EEA67A 		vmul.f32	s15, s15, s13
 551              	.LVL39:
 125:MyHardWare/Src/pid_speed.c **** 
 552              		.loc 1 125 3 is_stmt 1 view .LVU128
 125:MyHardWare/Src/pid_speed.c **** 
 553              		.loc 1 125 39 is_stmt 0 view .LVU129
 554 0062 D4ED056A 		vldr.32	s13, [r4, #20]
ARM GAS  /tmp/ccyS6A11.s 			page 16


 125:MyHardWare/Src/pid_speed.c **** 
 555              		.loc 1 125 43 view .LVU130
 556 0066 66EE876A 		vmul.f32	s13, s13, s14
 125:MyHardWare/Src/pid_speed.c **** 
 557              		.loc 1 125 74 view .LVU131
 558 006a 94ED066A 		vldr.32	s12, [r4, #24]
 125:MyHardWare/Src/pid_speed.c **** 
 559              		.loc 1 125 78 view .LVU132
 560 006e 26EE276A 		vmul.f32	s12, s12, s15
 125:MyHardWare/Src/pid_speed.c **** 
 561              		.loc 1 125 51 view .LVU133
 562 0072 76EE866A 		vadd.f32	s13, s13, s12
 125:MyHardWare/Src/pid_speed.c **** 
 563              		.loc 1 125 111 view .LVU134
 564 0076 94ED070A 		vldr.32	s0, [r4, #28]
 125:MyHardWare/Src/pid_speed.c **** 
 565              		.loc 1 125 115 view .LVU135
 566 007a 20EE250A 		vmul.f32	s0, s0, s11
 567              	.LVL40:
 128:MyHardWare/Src/pid_speed.c ****   controller->pid_state.last_integral_error = integral;//و›´و–°ن¸ٹو¬،ç§¯هˆ†é،¹
 568              		.loc 1 128 3 is_stmt 1 view .LVU136
 128:MyHardWare/Src/pid_speed.c ****   controller->pid_state.last_integral_error = integral;//و›´و–°ن¸ٹو¬،ç§¯هˆ†é،¹
 569              		.loc 1 128 32 is_stmt 0 view .LVU137
 570 007e 2561     		str	r5, [r4, #16]
 129:MyHardWare/Src/pid_speed.c ****   controller->pid_state.last_error = error;//و›´و–°ن¸ٹو¬،è¯¯ه·®é،¹
 571              		.loc 1 129 3 is_stmt 1 view .LVU138
 129:MyHardWare/Src/pid_speed.c ****   controller->pid_state.last_error = error;//و›´و–°ن¸ٹو¬،è¯¯ه·®é،¹
 572              		.loc 1 129 45 is_stmt 0 view .LVU139
 573 0080 C4ED097A 		vstr.32	s15, [r4, #36]
 130:MyHardWare/Src/pid_speed.c **** 
 574              		.loc 1 130 3 is_stmt 1 view .LVU140
 130:MyHardWare/Src/pid_speed.c **** 
 575              		.loc 1 130 36 is_stmt 0 view .LVU141
 576 0084 84ED0A7A 		vstr.32	s14, [r4, #40]
 133:MyHardWare/Src/pid_speed.c **** }
 577              		.loc 1 133 3 is_stmt 1 view .LVU142
 578 0088 36EE800A 		vadd.f32	s0, s13, s0
 579              	.LVL41:
 133:MyHardWare/Src/pid_speed.c **** }
 580              		.loc 1 133 3 is_stmt 0 view .LVU143
 581 008c 2046     		mov	r0, r4
 582 008e FFF7FEFF 		bl	update_motor_output
 583              	.LVL42:
 133:MyHardWare/Src/pid_speed.c **** }
 584              		.loc 1 133 3 view .LVU144
 585 0092 BDE7     		b	.L38
 586              	.LVL43:
 587              	.L41:
 588              	.LCFI20:
 589              		.cfi_def_cfa_offset 0
 590              		.cfi_restore 3
 591              		.cfi_restore 4
 592              		.cfi_restore 5
 593              		.cfi_restore 14
 594              		.cfi_restore 80
 595              		.cfi_restore 81
 133:MyHardWare/Src/pid_speed.c **** }
ARM GAS  /tmp/ccyS6A11.s 			page 17


 596              		.loc 1 133 3 view .LVU145
 597 0094 7047     		bx	lr
 598              	.L46:
 599 0096 00BF     		.align	2
 600              	.L45:
 601 0098 00007A44 		.word	1148846080
 602              		.cfi_endproc
 603              	.LFE127:
 605              		.global	Speed_PID_Left
 606              		.section	.bss.Speed_PID_Left,"aw",%nobits
 607              		.align	2
 610              	Speed_PID_Left:
 611 0000 00000000 		.space	44
 611      00000000 
 611      00000000 
 611      00000000 
 611      00000000 
 612              		.global	Speed_PID_Right
 613              		.section	.bss.Speed_PID_Right,"aw",%nobits
 614              		.align	2
 617              	Speed_PID_Right:
 618 0000 00000000 		.space	44
 618      00000000 
 618      00000000 
 618      00000000 
 618      00000000 
 619              		.text
 620              	.Letext0:
 621              		.file 2 "/usr/lib/gcc/arm-none-eabi/13.2.1/include/stdint.h"
 622              		.file 3 "MyHardWare/Inc/encoder.h"
 623              		.file 4 "MyHardWare/Inc/motor.h"
 624              		.file 5 "MyHardWare/Inc/pid_speed.h"
 625              		.file 6 "MyHardWare/Inc/task.h"
ARM GAS  /tmp/ccyS6A11.s 			page 18

