ARM GAS  /tmp/ccBfnoGs.s 			page 1


   1              		.cpu cortex-m4
   2              		.arch armv7e-m
   3              		.fpu fpv4-sp-d16
   4              		.eabi_attribute 27, 1
   5              		.eabi_attribute 28, 1
   6              		.eabi_attribute 20, 1
   7              		.eabi_attribute 21, 1
   8              		.eabi_attribute 23, 3
   9              		.eabi_attribute 24, 1
  10              		.eabi_attribute 25, 1
  11              		.eabi_attribute 26, 1
  12              		.eabi_attribute 30, 1
  13              		.eabi_attribute 34, 1
  14              		.eabi_attribute 18, 4
  15              		.file	"uart.c"
  16              		.text
  17              	.Ltext0:
  18              		.cfi_sections	.debug_frame
  19              		.file 1 "MyHardWare/Src/uart.c"
  20              		.section	.text.Int16ToString,"ax",%progbits
  21              		.align	1
  22              		.syntax unified
  23              		.thumb
  24              		.thumb_func
  26              	Int16ToString:
  27              	.LVL0:
  28              	.LFB128:
   1:MyHardWare/Src/uart.c **** /**
   2:MyHardWare/Src/uart.c ****  * @file uart.c
   3:MyHardWare/Src/uart.c ****  * @brief UART1驱动实现文件 - 串口数据传输
   4:MyHardWare/Src/uart.c ****  * @version 1.0
   5:MyHardWare/Src/uart.c ****  * @date 2025-12-15
   6:MyHardWare/Src/uart.c ****  */
   7:MyHardWare/Src/uart.c **** 
   8:MyHardWare/Src/uart.c **** #include "uart.h"
   9:MyHardWare/Src/uart.c **** #include <stdint.h>
  10:MyHardWare/Src/uart.c **** 
  11:MyHardWare/Src/uart.c **** /* 私有变量 */
  12:MyHardWare/Src/uart.c **** /* static uint8_t uart_tx_buffer[UART_BUFFER_SIZE]; // 保留供将来使用 */
  13:MyHardWare/Src/uart.c **** /* static volatile uint16_t uart_tx_index = 0;    // 保留供将来使用 */
  14:MyHardWare/Src/uart.c **** /* static volatile uint16_t uart_tx_length = 0;   // 保留供将来使用 */
  15:MyHardWare/Src/uart.c **** 
  16:MyHardWare/Src/uart.c **** /* 私有函数声明 */
  17:MyHardWare/Src/uart.c **** static void Int16ToString(uint16_t num, char *str);
  18:MyHardWare/Src/uart.c **** 
  19:MyHardWare/Src/uart.c **** /**
  20:MyHardWare/Src/uart.c ****  * @brief  UART1 GPIO初始化函数
  21:MyHardWare/Src/uart.c ****  * @param  None
  22:MyHardWare/Src/uart.c ****  * @retval None
  23:MyHardWare/Src/uart.c ****  */
  24:MyHardWare/Src/uart.c **** static void UART1_GPIO_Init(void) {
  25:MyHardWare/Src/uart.c ****   GPIO_InitTypeDef GPIO_InitStructure;
  26:MyHardWare/Src/uart.c **** 
  27:MyHardWare/Src/uart.c ****   /* 使能GPIOA时钟 */
  28:MyHardWare/Src/uart.c ****   RCC_AHB1PeriphClockCmd(UART1_GPIO_CLK, ENABLE);
  29:MyHardWare/Src/uart.c **** 
  30:MyHardWare/Src/uart.c ****   /* 配置PA9为复用功能推挽输出 */
ARM GAS  /tmp/ccBfnoGs.s 			page 2


  31:MyHardWare/Src/uart.c ****   GPIO_InitStructure.GPIO_Pin = UART1_TX_PIN;
  32:MyHardWare/Src/uart.c ****   GPIO_InitStructure.GPIO_Mode = GPIO_Mode_AF;
  33:MyHardWare/Src/uart.c ****   GPIO_InitStructure.GPIO_Speed = GPIO_Speed_50MHz;
  34:MyHardWare/Src/uart.c ****   GPIO_InitStructure.GPIO_OType = GPIO_OType_PP;
  35:MyHardWare/Src/uart.c ****   GPIO_InitStructure.GPIO_PuPd = GPIO_PuPd_UP;
  36:MyHardWare/Src/uart.c ****   GPIO_Init(UART1_GPIO_PORT, &GPIO_InitStructure);
  37:MyHardWare/Src/uart.c **** 
  38:MyHardWare/Src/uart.c ****   /* 配置PA10为复用功能输入 */
  39:MyHardWare/Src/uart.c ****   GPIO_InitStructure.GPIO_Pin = UART1_RX_PIN;
  40:MyHardWare/Src/uart.c ****   GPIO_InitStructure.GPIO_Mode = GPIO_Mode_AF;
  41:MyHardWare/Src/uart.c ****   GPIO_InitStructure.GPIO_PuPd = GPIO_PuPd_UP;
  42:MyHardWare/Src/uart.c ****   GPIO_Init(UART1_GPIO_PORT, &GPIO_InitStructure);
  43:MyHardWare/Src/uart.c **** 
  44:MyHardWare/Src/uart.c ****   /* 配置GPIO复用功能 */
  45:MyHardWare/Src/uart.c ****   GPIO_PinAFConfig(UART1_GPIO_PORT, GPIO_PinSource9, GPIO_AF_USART1);
  46:MyHardWare/Src/uart.c ****   GPIO_PinAFConfig(UART1_GPIO_PORT, GPIO_PinSource10, GPIO_AF_USART1);
  47:MyHardWare/Src/uart.c **** }
  48:MyHardWare/Src/uart.c **** 
  49:MyHardWare/Src/uart.c **** /**
  50:MyHardWare/Src/uart.c ****  * @brief  UART1初始化函数
  51:MyHardWare/Src/uart.c ****  * @param  None
  52:MyHardWare/Src/uart.c ****  * @retval None
  53:MyHardWare/Src/uart.c ****  */
  54:MyHardWare/Src/uart.c **** void UART1_Init(void) {
  55:MyHardWare/Src/uart.c ****   USART_InitTypeDef USART_InitStructure;
  56:MyHardWare/Src/uart.c **** 
  57:MyHardWare/Src/uart.c ****   /* 使能USART1时钟 */
  58:MyHardWare/Src/uart.c ****   RCC_APB2PeriphClockCmd(UART1_CLK, ENABLE);
  59:MyHardWare/Src/uart.c **** 
  60:MyHardWare/Src/uart.c ****   /* GPIO初始化 */
  61:MyHardWare/Src/uart.c ****   UART1_GPIO_Init();
  62:MyHardWare/Src/uart.c **** 
  63:MyHardWare/Src/uart.c ****   /* UART1配置 */
  64:MyHardWare/Src/uart.c ****   USART_InitStructure.USART_BaudRate = UART_BAUDRATE;
  65:MyHardWare/Src/uart.c ****   USART_InitStructure.USART_WordLength = USART_WordLength_8b;
  66:MyHardWare/Src/uart.c ****   USART_InitStructure.USART_StopBits = USART_StopBits_1;
  67:MyHardWare/Src/uart.c ****   USART_InitStructure.USART_Parity = USART_Parity_No;
  68:MyHardWare/Src/uart.c ****   USART_InitStructure.USART_HardwareFlowControl =
  69:MyHardWare/Src/uart.c ****       USART_HardwareFlowControl_None;
  70:MyHardWare/Src/uart.c ****   USART_InitStructure.USART_Mode = USART_Mode_Tx | USART_Mode_Rx;
  71:MyHardWare/Src/uart.c ****   USART_Init(UART1, &USART_InitStructure);
  72:MyHardWare/Src/uart.c **** 
  73:MyHardWare/Src/uart.c ****   /* 使能USART1 */
  74:MyHardWare/Src/uart.c ****   USART_Cmd(UART1, ENABLE);
  75:MyHardWare/Src/uart.c **** }
  76:MyHardWare/Src/uart.c **** 
  77:MyHardWare/Src/uart.c **** /**
  78:MyHardWare/Src/uart.c ****  * @brief  UART1发送一个字节
  79:MyHardWare/Src/uart.c ****  * @param  data: 要发送的数据
  80:MyHardWare/Src/uart.c ****  * @retval None
  81:MyHardWare/Src/uart.c ****  */
  82:MyHardWare/Src/uart.c **** void UART1_SendByte(uint8_t data) {
  83:MyHardWare/Src/uart.c ****   /* 等待发送缓冲区为空 */
  84:MyHardWare/Src/uart.c ****   while (USART_GetFlagStatus(UART1, USART_FLAG_TXE) == RESET)
  85:MyHardWare/Src/uart.c ****     ;
  86:MyHardWare/Src/uart.c **** 
  87:MyHardWare/Src/uart.c ****   /* 强制转换为16位并发送数据，确保正确的数据位传输 */
ARM GAS  /tmp/ccBfnoGs.s 			page 3


  88:MyHardWare/Src/uart.c ****   USART_SendData(UART1, (uint16_t)data);
  89:MyHardWare/Src/uart.c **** }
  90:MyHardWare/Src/uart.c **** 
  91:MyHardWare/Src/uart.c **** /**
  92:MyHardWare/Src/uart.c ****  * @brief  UART1发送字符串
  93:MyHardWare/Src/uart.c ****  * @param  str: 要发送的字符串
  94:MyHardWare/Src/uart.c ****  * @retval None
  95:MyHardWare/Src/uart.c ****  */
  96:MyHardWare/Src/uart.c **** void UART1_SendString(const char *str) {
  97:MyHardWare/Src/uart.c ****   while (*str) {
  98:MyHardWare/Src/uart.c ****     UART1_SendByte(*str++);
  99:MyHardWare/Src/uart.c ****   }
 100:MyHardWare/Src/uart.c **** }
 101:MyHardWare/Src/uart.c **** 
 102:MyHardWare/Src/uart.c **** /**
 103:MyHardWare/Src/uart.c ****  * @brief  UART1发送数据数组
 104:MyHardWare/Src/uart.c ****  * @param  data: 要发送的数据数组
 105:MyHardWare/Src/uart.c ****  * @param  size: 数据大小
 106:MyHardWare/Src/uart.c ****  * @retval None
 107:MyHardWare/Src/uart.c ****  */
 108:MyHardWare/Src/uart.c **** void UART1_SendData(uint16_t *data, uint16_t size) {
 109:MyHardWare/Src/uart.c ****   uint16_t i, j;
 110:MyHardWare/Src/uart.c ****   char temp_str[16];
 111:MyHardWare/Src/uart.c **** 
 112:MyHardWare/Src/uart.c ****   for (i = 0; i * 10 < size; i++) {
 113:MyHardWare/Src/uart.c **** 
 114:MyHardWare/Src/uart.c ****     for (j = 0; (i * 10 + j) < size; i++) {
 115:MyHardWare/Src/uart.c ****       /* 将16位数据转换为字符串 */
 116:MyHardWare/Src/uart.c ****       Int16ToString(data[i * 10 + j], temp_str);
 117:MyHardWare/Src/uart.c ****       UART1_SendString(temp_str);
 118:MyHardWare/Src/uart.c ****       UART1_SendString(" ");
 119:MyHardWare/Src/uart.c **** 
 120:MyHardWare/Src/uart.c ****       /* 添加小延时避免发送过快 */
 121:MyHardWare/Src/uart.c ****       /* 可以根据需要调整延时 */
 122:MyHardWare/Src/uart.c ****     }
 123:MyHardWare/Src/uart.c ****     UART1_SendString("\r\n");
 124:MyHardWare/Src/uart.c ****   }
 125:MyHardWare/Src/uart.c **** }
 126:MyHardWare/Src/uart.c **** 
 127:MyHardWare/Src/uart.c **** /**
 128:MyHardWare/Src/uart.c ****  * @brief  UART1发送ADC数据缓冲区
 129:MyHardWare/Src/uart.c ****  * @param  None
 130:MyHardWare/Src/uart.c ****  * @retval None
 131:MyHardWare/Src/uart.c ****  */
 132:MyHardWare/Src/uart.c **** 
 133:MyHardWare/Src/uart.c **** /**
 134:MyHardWare/Src/uart.c ****  * @brief  将16位整数转换为字符串
 135:MyHardWare/Src/uart.c ****  * @param  num: 要转换的数字
 136:MyHardWare/Src/uart.c ****  * @param  str: 存储结果的字符串缓冲区
 137:MyHardWare/Src/uart.c ****  * @retval None
 138:MyHardWare/Src/uart.c ****  */
 139:MyHardWare/Src/uart.c **** static void Int16ToString(uint16_t num, char *str) {
  29              		.loc 1 139 52 view -0
  30              		.cfi_startproc
  31              		@ args = 0, pretend = 0, frame = 8
  32              		@ frame_needed = 0, uses_anonymous_args = 0
 140:MyHardWare/Src/uart.c ****   uint16_t i = 0;
ARM GAS  /tmp/ccBfnoGs.s 			page 4


  33              		.loc 1 140 3 view .LVU1
 141:MyHardWare/Src/uart.c ****   uint16_t j = 0;
  34              		.loc 1 141 3 view .LVU2
 142:MyHardWare/Src/uart.c ****   char digits[6]; // 16位最大值65535，需要5位+结束符
  35              		.loc 1 142 3 view .LVU3
 143:MyHardWare/Src/uart.c **** 
 144:MyHardWare/Src/uart.c ****   /* 处理0的特殊情况 */
 145:MyHardWare/Src/uart.c ****   if (num == 0) {
  36              		.loc 1 145 3 view .LVU4
  37              		.loc 1 145 6 is_stmt 0 view .LVU5
  38 0000 28B1     		cbz	r0, .L11
 139:MyHardWare/Src/uart.c ****   uint16_t i = 0;
  39              		.loc 1 139 52 view .LVU6
  40 0002 00B5     		push	{lr}
  41              	.LCFI0:
  42              		.cfi_def_cfa_offset 4
  43              		.cfi_offset 14, -4
  44 0004 83B0     		sub	sp, sp, #12
  45              	.LCFI1:
  46              		.cfi_def_cfa_offset 16
  47 0006 0346     		mov	r3, r0
 140:MyHardWare/Src/uart.c ****   uint16_t j = 0;
  48              		.loc 1 140 12 view .LVU7
  49 0008 4FF0000E 		mov	lr, #0
  50 000c 17E0     		b	.L2
  51              	.L11:
  52              	.LCFI2:
  53              		.cfi_def_cfa_offset 0
  54              		.cfi_restore 14
 146:MyHardWare/Src/uart.c ****     str[0] = '0';
  55              		.loc 1 146 5 is_stmt 1 view .LVU8
  56              		.loc 1 146 12 is_stmt 0 view .LVU9
  57 000e 3023     		movs	r3, #48
  58 0010 0B70     		strb	r3, [r1]
 147:MyHardWare/Src/uart.c ****     str[1] = '\0';
  59              		.loc 1 147 5 is_stmt 1 view .LVU10
  60              		.loc 1 147 12 is_stmt 0 view .LVU11
  61 0012 0023     		movs	r3, #0
  62 0014 4B70     		strb	r3, [r1, #1]
 148:MyHardWare/Src/uart.c ****     return;
  63              		.loc 1 148 5 is_stmt 1 view .LVU12
  64 0016 7047     		bx	lr
  65              	.LVL1:
  66              	.L4:
  67              	.LCFI3:
  68              		.cfi_def_cfa_offset 16
  69              		.cfi_offset 14, -4
 149:MyHardWare/Src/uart.c ****   }
 150:MyHardWare/Src/uart.c **** 
 151:MyHardWare/Src/uart.c ****   /* 分解数字到各位 */
 152:MyHardWare/Src/uart.c ****   while (num > 0) {
 153:MyHardWare/Src/uart.c ****     digits[i++] = (num % 10) + '0';
  70              		.loc 1 153 5 view .LVU13
  71              		.loc 1 153 13 is_stmt 0 view .LVU14
  72 0018 0EF1010C 		add	ip, lr, #1
  73              	.LVL2:
  74              		.loc 1 153 30 view .LVU15
ARM GAS  /tmp/ccBfnoGs.s 			page 5


  75 001c 164A     		ldr	r2, .L12
  76 001e A2FB0302 		umull	r0, r2, r2, r3
  77 0022 D208     		lsrs	r2, r2, #3
  78 0024 02EB8200 		add	r0, r2, r2, lsl #2
  79 0028 A3EB4003 		sub	r3, r3, r0, lsl #1
  80              	.LVL3:
  81              		.loc 1 153 30 view .LVU16
  82 002c 3033     		adds	r3, r3, #48
  83              		.loc 1 153 17 view .LVU17
  84 002e 0EF10800 		add	r0, lr, #8
  85 0032 6844     		add	r0, sp, r0
  86 0034 00F8083C 		strb	r3, [r0, #-8]
 154:MyHardWare/Src/uart.c ****     num /= 10;
  87              		.loc 1 154 5 is_stmt 1 view .LVU18
  88              		.loc 1 154 9 is_stmt 0 view .LVU19
  89 0038 93B2     		uxth	r3, r2
  90              	.LVL4:
 153:MyHardWare/Src/uart.c ****     num /= 10;
  91              		.loc 1 153 13 view .LVU20
  92 003a 1FFA8CFE 		uxth	lr, ip
  93              	.LVL5:
  94              	.L2:
 152:MyHardWare/Src/uart.c ****     digits[i++] = (num % 10) + '0';
  95              		.loc 1 152 14 is_stmt 1 view .LVU21
  96 003e 002B     		cmp	r3, #0
  97 0040 EAD1     		bne	.L4
 155:MyHardWare/Src/uart.c ****   }
 156:MyHardWare/Src/uart.c ****   digits[i] = '\0';
  98              		.loc 1 156 3 view .LVU22
  99              		.loc 1 156 9 is_stmt 0 view .LVU23
 100 0042 7046     		mov	r0, lr
 101              		.loc 1 156 13 view .LVU24
 102 0044 4FF0000C 		mov	ip, #0
 103 0048 0EF10802 		add	r2, lr, #8
 104 004c 6A44     		add	r2, sp, r2
 105 004e 02F808CC 		strb	ip, [r2, #-8]
 157:MyHardWare/Src/uart.c **** 
 158:MyHardWare/Src/uart.c ****   /* 反转字符串 */
 159:MyHardWare/Src/uart.c ****   for (j = 0; j < i; j++) {
 106              		.loc 1 159 3 is_stmt 1 view .LVU25
 107              		.loc 1 159 3 is_stmt 0 view .LVU26
 108 0052 08E0     		b	.L5
 109              	.LVL6:
 110              	.L6:
 160:MyHardWare/Src/uart.c ****     str[j] = digits[i - 1 - j];
 111              		.loc 1 160 5 is_stmt 1 view .LVU27
 112              		.loc 1 160 23 is_stmt 0 view .LVU28
 113 0054 421E     		subs	r2, r0, #1
 114              		.loc 1 160 27 view .LVU29
 115 0056 D21A     		subs	r2, r2, r3
 116              		.loc 1 160 20 view .LVU30
 117 0058 0832     		adds	r2, r2, #8
 118 005a 6A44     		add	r2, sp, r2
 119 005c 12F8082C 		ldrb	r2, [r2, #-8]	@ zero_extendqisi2
 120              		.loc 1 160 12 view .LVU31
 121 0060 CA54     		strb	r2, [r1, r3]
 159:MyHardWare/Src/uart.c ****     str[j] = digits[i - 1 - j];
ARM GAS  /tmp/ccBfnoGs.s 			page 6


 122              		.loc 1 159 23 is_stmt 1 discriminator 3 view .LVU32
 123 0062 0133     		adds	r3, r3, #1
 124              	.LVL7:
 159:MyHardWare/Src/uart.c ****     str[j] = digits[i - 1 - j];
 125              		.loc 1 159 23 is_stmt 0 discriminator 3 view .LVU33
 126 0064 9BB2     		uxth	r3, r3
 127              	.LVL8:
 128              	.L5:
 159:MyHardWare/Src/uart.c ****     str[j] = digits[i - 1 - j];
 129              		.loc 1 159 17 is_stmt 1 discriminator 1 view .LVU34
 130 0066 9E45     		cmp	lr, r3
 131 0068 F4D8     		bhi	.L6
 161:MyHardWare/Src/uart.c ****   }
 162:MyHardWare/Src/uart.c ****   str[i] = '\0';
 132              		.loc 1 162 3 view .LVU35
 133              		.loc 1 162 10 is_stmt 0 view .LVU36
 134 006a 0023     		movs	r3, #0
 135              	.LVL9:
 136              		.loc 1 162 10 view .LVU37
 137 006c 01F80E30 		strb	r3, [r1, lr]
 163:MyHardWare/Src/uart.c **** }
 138              		.loc 1 163 1 view .LVU38
 139 0070 03B0     		add	sp, sp, #12
 140              	.LCFI4:
 141              		.cfi_def_cfa_offset 4
 142              		@ sp needed
 143 0072 5DF804FB 		ldr	pc, [sp], #4
 144              	.L13:
 145 0076 00BF     		.align	2
 146              	.L12:
 147 0078 CDCCCCCC 		.word	-858993459
 148              		.cfi_endproc
 149              	.LFE128:
 151              		.section	.text.UART1_GPIO_Init,"ax",%progbits
 152              		.align	1
 153              		.syntax unified
 154              		.thumb
 155              		.thumb_func
 157              	UART1_GPIO_Init:
 158              	.LFB123:
  24:MyHardWare/Src/uart.c ****   GPIO_InitTypeDef GPIO_InitStructure;
 159              		.loc 1 24 35 is_stmt 1 view -0
 160              		.cfi_startproc
 161              		@ args = 0, pretend = 0, frame = 8
 162              		@ frame_needed = 0, uses_anonymous_args = 0
 163 0000 70B5     		push	{r4, r5, r6, lr}
 164              	.LCFI5:
 165              		.cfi_def_cfa_offset 16
 166              		.cfi_offset 4, -16
 167              		.cfi_offset 5, -12
 168              		.cfi_offset 6, -8
 169              		.cfi_offset 14, -4
 170 0002 82B0     		sub	sp, sp, #8
 171              	.LCFI6:
 172              		.cfi_def_cfa_offset 24
  25:MyHardWare/Src/uart.c **** 
 173              		.loc 1 25 3 view .LVU40
ARM GAS  /tmp/ccBfnoGs.s 			page 7


  28:MyHardWare/Src/uart.c **** 
 174              		.loc 1 28 3 view .LVU41
 175 0004 0121     		movs	r1, #1
 176 0006 0846     		mov	r0, r1
 177 0008 FFF7FEFF 		bl	RCC_AHB1PeriphClockCmd
 178              	.LVL10:
  31:MyHardWare/Src/uart.c ****   GPIO_InitStructure.GPIO_Mode = GPIO_Mode_AF;
 179              		.loc 1 31 3 view .LVU42
  31:MyHardWare/Src/uart.c ****   GPIO_InitStructure.GPIO_Mode = GPIO_Mode_AF;
 180              		.loc 1 31 31 is_stmt 0 view .LVU43
 181 000c 4FF40073 		mov	r3, #512
 182 0010 0093     		str	r3, [sp]
  32:MyHardWare/Src/uart.c ****   GPIO_InitStructure.GPIO_Speed = GPIO_Speed_50MHz;
 183              		.loc 1 32 3 is_stmt 1 view .LVU44
  32:MyHardWare/Src/uart.c ****   GPIO_InitStructure.GPIO_Speed = GPIO_Speed_50MHz;
 184              		.loc 1 32 32 is_stmt 0 view .LVU45
 185 0012 0225     		movs	r5, #2
 186 0014 8DF80450 		strb	r5, [sp, #4]
  33:MyHardWare/Src/uart.c ****   GPIO_InitStructure.GPIO_OType = GPIO_OType_PP;
 187              		.loc 1 33 3 is_stmt 1 view .LVU46
  33:MyHardWare/Src/uart.c ****   GPIO_InitStructure.GPIO_OType = GPIO_OType_PP;
 188              		.loc 1 33 33 is_stmt 0 view .LVU47
 189 0018 8DF80550 		strb	r5, [sp, #5]
  34:MyHardWare/Src/uart.c ****   GPIO_InitStructure.GPIO_PuPd = GPIO_PuPd_UP;
 190              		.loc 1 34 3 is_stmt 1 view .LVU48
  34:MyHardWare/Src/uart.c ****   GPIO_InitStructure.GPIO_PuPd = GPIO_PuPd_UP;
 191              		.loc 1 34 33 is_stmt 0 view .LVU49
 192 001c 0023     		movs	r3, #0
 193 001e 8DF80630 		strb	r3, [sp, #6]
  35:MyHardWare/Src/uart.c ****   GPIO_Init(UART1_GPIO_PORT, &GPIO_InitStructure);
 194              		.loc 1 35 3 is_stmt 1 view .LVU50
  35:MyHardWare/Src/uart.c ****   GPIO_Init(UART1_GPIO_PORT, &GPIO_InitStructure);
 195              		.loc 1 35 32 is_stmt 0 view .LVU51
 196 0022 0126     		movs	r6, #1
 197 0024 8DF80760 		strb	r6, [sp, #7]
  36:MyHardWare/Src/uart.c **** 
 198              		.loc 1 36 3 is_stmt 1 view .LVU52
 199 0028 0D4C     		ldr	r4, .L16
 200 002a 6946     		mov	r1, sp
 201 002c 2046     		mov	r0, r4
 202 002e FFF7FEFF 		bl	GPIO_Init
 203              	.LVL11:
  39:MyHardWare/Src/uart.c ****   GPIO_InitStructure.GPIO_Mode = GPIO_Mode_AF;
 204              		.loc 1 39 3 view .LVU53
  39:MyHardWare/Src/uart.c ****   GPIO_InitStructure.GPIO_Mode = GPIO_Mode_AF;
 205              		.loc 1 39 31 is_stmt 0 view .LVU54
 206 0032 4FF48063 		mov	r3, #1024
 207 0036 0093     		str	r3, [sp]
  40:MyHardWare/Src/uart.c ****   GPIO_InitStructure.GPIO_PuPd = GPIO_PuPd_UP;
 208              		.loc 1 40 3 is_stmt 1 view .LVU55
  40:MyHardWare/Src/uart.c ****   GPIO_InitStructure.GPIO_PuPd = GPIO_PuPd_UP;
 209              		.loc 1 40 32 is_stmt 0 view .LVU56
 210 0038 8DF80450 		strb	r5, [sp, #4]
  41:MyHardWare/Src/uart.c ****   GPIO_Init(UART1_GPIO_PORT, &GPIO_InitStructure);
 211              		.loc 1 41 3 is_stmt 1 view .LVU57
  41:MyHardWare/Src/uart.c ****   GPIO_Init(UART1_GPIO_PORT, &GPIO_InitStructure);
 212              		.loc 1 41 32 is_stmt 0 view .LVU58
ARM GAS  /tmp/ccBfnoGs.s 			page 8


 213 003c 8DF80760 		strb	r6, [sp, #7]
  42:MyHardWare/Src/uart.c **** 
 214              		.loc 1 42 3 is_stmt 1 view .LVU59
 215 0040 6946     		mov	r1, sp
 216 0042 2046     		mov	r0, r4
 217 0044 FFF7FEFF 		bl	GPIO_Init
 218              	.LVL12:
  45:MyHardWare/Src/uart.c ****   GPIO_PinAFConfig(UART1_GPIO_PORT, GPIO_PinSource10, GPIO_AF_USART1);
 219              		.loc 1 45 3 view .LVU60
 220 0048 0722     		movs	r2, #7
 221 004a 0921     		movs	r1, #9
 222 004c 2046     		mov	r0, r4
 223 004e FFF7FEFF 		bl	GPIO_PinAFConfig
 224              	.LVL13:
  46:MyHardWare/Src/uart.c **** }
 225              		.loc 1 46 3 view .LVU61
 226 0052 0722     		movs	r2, #7
 227 0054 0A21     		movs	r1, #10
 228 0056 2046     		mov	r0, r4
 229 0058 FFF7FEFF 		bl	GPIO_PinAFConfig
 230              	.LVL14:
  47:MyHardWare/Src/uart.c **** 
 231              		.loc 1 47 1 is_stmt 0 view .LVU62
 232 005c 02B0     		add	sp, sp, #8
 233              	.LCFI7:
 234              		.cfi_def_cfa_offset 16
 235              		@ sp needed
 236 005e 70BD     		pop	{r4, r5, r6, pc}
 237              	.L17:
 238              		.align	2
 239              	.L16:
 240 0060 00000240 		.word	1073872896
 241              		.cfi_endproc
 242              	.LFE123:
 244              		.section	.text.UART1_Init,"ax",%progbits
 245              		.align	1
 246              		.global	UART1_Init
 247              		.syntax unified
 248              		.thumb
 249              		.thumb_func
 251              	UART1_Init:
 252              	.LFB124:
  54:MyHardWare/Src/uart.c ****   USART_InitTypeDef USART_InitStructure;
 253              		.loc 1 54 23 is_stmt 1 view -0
 254              		.cfi_startproc
 255              		@ args = 0, pretend = 0, frame = 16
 256              		@ frame_needed = 0, uses_anonymous_args = 0
 257 0000 10B5     		push	{r4, lr}
 258              	.LCFI8:
 259              		.cfi_def_cfa_offset 8
 260              		.cfi_offset 4, -8
 261              		.cfi_offset 14, -4
 262 0002 84B0     		sub	sp, sp, #16
 263              	.LCFI9:
 264              		.cfi_def_cfa_offset 24
  55:MyHardWare/Src/uart.c **** 
 265              		.loc 1 55 3 view .LVU64
ARM GAS  /tmp/ccBfnoGs.s 			page 9


  58:MyHardWare/Src/uart.c **** 
 266              		.loc 1 58 3 view .LVU65
 267 0004 0121     		movs	r1, #1
 268 0006 1020     		movs	r0, #16
 269 0008 FFF7FEFF 		bl	RCC_APB2PeriphClockCmd
 270              	.LVL15:
  61:MyHardWare/Src/uart.c **** 
 271              		.loc 1 61 3 view .LVU66
 272 000c FFF7FEFF 		bl	UART1_GPIO_Init
 273              	.LVL16:
  64:MyHardWare/Src/uart.c ****   USART_InitStructure.USART_WordLength = USART_WordLength_8b;
 274              		.loc 1 64 3 view .LVU67
  64:MyHardWare/Src/uart.c ****   USART_InitStructure.USART_WordLength = USART_WordLength_8b;
 275              		.loc 1 64 38 is_stmt 0 view .LVU68
 276 0010 4FF4E133 		mov	r3, #115200
 277 0014 0093     		str	r3, [sp]
  65:MyHardWare/Src/uart.c ****   USART_InitStructure.USART_StopBits = USART_StopBits_1;
 278              		.loc 1 65 3 is_stmt 1 view .LVU69
  65:MyHardWare/Src/uart.c ****   USART_InitStructure.USART_StopBits = USART_StopBits_1;
 279              		.loc 1 65 40 is_stmt 0 view .LVU70
 280 0016 0023     		movs	r3, #0
 281 0018 ADF80430 		strh	r3, [sp, #4]	@ movhi
  66:MyHardWare/Src/uart.c ****   USART_InitStructure.USART_Parity = USART_Parity_No;
 282              		.loc 1 66 3 is_stmt 1 view .LVU71
  66:MyHardWare/Src/uart.c ****   USART_InitStructure.USART_Parity = USART_Parity_No;
 283              		.loc 1 66 38 is_stmt 0 view .LVU72
 284 001c ADF80630 		strh	r3, [sp, #6]	@ movhi
  67:MyHardWare/Src/uart.c ****   USART_InitStructure.USART_HardwareFlowControl =
 285              		.loc 1 67 3 is_stmt 1 view .LVU73
  67:MyHardWare/Src/uart.c ****   USART_InitStructure.USART_HardwareFlowControl =
 286              		.loc 1 67 36 is_stmt 0 view .LVU74
 287 0020 ADF80830 		strh	r3, [sp, #8]	@ movhi
  68:MyHardWare/Src/uart.c ****       USART_HardwareFlowControl_None;
 288              		.loc 1 68 3 is_stmt 1 view .LVU75
  68:MyHardWare/Src/uart.c ****       USART_HardwareFlowControl_None;
 289              		.loc 1 68 49 is_stmt 0 view .LVU76
 290 0024 ADF80C30 		strh	r3, [sp, #12]	@ movhi
  70:MyHardWare/Src/uart.c ****   USART_Init(UART1, &USART_InitStructure);
 291              		.loc 1 70 3 is_stmt 1 view .LVU77
  70:MyHardWare/Src/uart.c ****   USART_Init(UART1, &USART_InitStructure);
 292              		.loc 1 70 34 is_stmt 0 view .LVU78
 293 0028 0C23     		movs	r3, #12
 294 002a ADF80A30 		strh	r3, [sp, #10]	@ movhi
  71:MyHardWare/Src/uart.c **** 
 295              		.loc 1 71 3 is_stmt 1 view .LVU79
 296 002e 054C     		ldr	r4, .L20
 297 0030 6946     		mov	r1, sp
 298 0032 2046     		mov	r0, r4
 299 0034 FFF7FEFF 		bl	USART_Init
 300              	.LVL17:
  74:MyHardWare/Src/uart.c **** }
 301              		.loc 1 74 3 view .LVU80
 302 0038 0121     		movs	r1, #1
 303 003a 2046     		mov	r0, r4
 304 003c FFF7FEFF 		bl	USART_Cmd
 305              	.LVL18:
  75:MyHardWare/Src/uart.c **** 
ARM GAS  /tmp/ccBfnoGs.s 			page 10


 306              		.loc 1 75 1 is_stmt 0 view .LVU81
 307 0040 04B0     		add	sp, sp, #16
 308              	.LCFI10:
 309              		.cfi_def_cfa_offset 8
 310              		@ sp needed
 311 0042 10BD     		pop	{r4, pc}
 312              	.L21:
 313              		.align	2
 314              	.L20:
 315 0044 00100140 		.word	1073811456
 316              		.cfi_endproc
 317              	.LFE124:
 319              		.section	.text.UART1_SendByte,"ax",%progbits
 320              		.align	1
 321              		.global	UART1_SendByte
 322              		.syntax unified
 323              		.thumb
 324              		.thumb_func
 326              	UART1_SendByte:
 327              	.LVL19:
 328              	.LFB125:
  82:MyHardWare/Src/uart.c ****   /* 等待发送缓冲区为空 */
 329              		.loc 1 82 35 is_stmt 1 view -0
 330              		.cfi_startproc
 331              		@ args = 0, pretend = 0, frame = 0
 332              		@ frame_needed = 0, uses_anonymous_args = 0
  82:MyHardWare/Src/uart.c ****   /* 等待发送缓冲区为空 */
 333              		.loc 1 82 35 is_stmt 0 view .LVU83
 334 0000 10B5     		push	{r4, lr}
 335              	.LCFI11:
 336              		.cfi_def_cfa_offset 8
 337              		.cfi_offset 4, -8
 338              		.cfi_offset 14, -4
 339 0002 0446     		mov	r4, r0
  84:MyHardWare/Src/uart.c ****     ;
 340              		.loc 1 84 3 is_stmt 1 view .LVU84
 341              	.LVL20:
 342              	.L23:
  84:MyHardWare/Src/uart.c ****     ;
 343              		.loc 1 84 53 discriminator 1 view .LVU85
  84:MyHardWare/Src/uart.c ****     ;
 344              		.loc 1 84 10 is_stmt 0 discriminator 1 view .LVU86
 345 0004 8021     		movs	r1, #128
 346 0006 0548     		ldr	r0, .L25
 347 0008 FFF7FEFF 		bl	USART_GetFlagStatus
 348              	.LVL21:
  84:MyHardWare/Src/uart.c ****     ;
 349              		.loc 1 84 53 discriminator 1 view .LVU87
 350 000c 0028     		cmp	r0, #0
 351 000e F9D0     		beq	.L23
  88:MyHardWare/Src/uart.c **** }
 352              		.loc 1 88 3 is_stmt 1 view .LVU88
 353 0010 2146     		mov	r1, r4
 354 0012 0248     		ldr	r0, .L25
 355 0014 FFF7FEFF 		bl	USART_SendData
 356              	.LVL22:
  89:MyHardWare/Src/uart.c **** 
ARM GAS  /tmp/ccBfnoGs.s 			page 11


 357              		.loc 1 89 1 is_stmt 0 view .LVU89
 358 0018 10BD     		pop	{r4, pc}
 359              	.LVL23:
 360              	.L26:
  89:MyHardWare/Src/uart.c **** 
 361              		.loc 1 89 1 view .LVU90
 362 001a 00BF     		.align	2
 363              	.L25:
 364 001c 00100140 		.word	1073811456
 365              		.cfi_endproc
 366              	.LFE125:
 368              		.section	.text.UART1_SendString,"ax",%progbits
 369              		.align	1
 370              		.global	UART1_SendString
 371              		.syntax unified
 372              		.thumb
 373              		.thumb_func
 375              	UART1_SendString:
 376              	.LVL24:
 377              	.LFB126:
  96:MyHardWare/Src/uart.c ****   while (*str) {
 378              		.loc 1 96 40 is_stmt 1 view -0
 379              		.cfi_startproc
 380              		@ args = 0, pretend = 0, frame = 0
 381              		@ frame_needed = 0, uses_anonymous_args = 0
  96:MyHardWare/Src/uart.c ****   while (*str) {
 382              		.loc 1 96 40 is_stmt 0 view .LVU92
 383 0000 10B5     		push	{r4, lr}
 384              	.LCFI12:
 385              		.cfi_def_cfa_offset 8
 386              		.cfi_offset 4, -8
 387              		.cfi_offset 14, -4
 388 0002 0446     		mov	r4, r0
  97:MyHardWare/Src/uart.c ****     UART1_SendByte(*str++);
 389              		.loc 1 97 3 is_stmt 1 view .LVU93
  97:MyHardWare/Src/uart.c ****     UART1_SendByte(*str++);
 390              		.loc 1 97 9 is_stmt 0 view .LVU94
 391 0004 02E0     		b	.L28
 392              	.LVL25:
 393              	.L29:
  98:MyHardWare/Src/uart.c ****   }
 394              		.loc 1 98 5 is_stmt 1 view .LVU95
  98:MyHardWare/Src/uart.c ****   }
 395              		.loc 1 98 24 is_stmt 0 view .LVU96
 396 0006 0134     		adds	r4, r4, #1
 397              	.LVL26:
  98:MyHardWare/Src/uart.c ****   }
 398              		.loc 1 98 5 view .LVU97
 399 0008 FFF7FEFF 		bl	UART1_SendByte
 400              	.LVL27:
 401              	.L28:
  97:MyHardWare/Src/uart.c ****     UART1_SendByte(*str++);
 402              		.loc 1 97 10 is_stmt 1 view .LVU98
 403 000c 2078     		ldrb	r0, [r4]	@ zero_extendqisi2
 404 000e 0028     		cmp	r0, #0
 405 0010 F9D1     		bne	.L29
 100:MyHardWare/Src/uart.c **** 
ARM GAS  /tmp/ccBfnoGs.s 			page 12


 406              		.loc 1 100 1 is_stmt 0 view .LVU99
 407 0012 10BD     		pop	{r4, pc}
 100:MyHardWare/Src/uart.c **** 
 408              		.loc 1 100 1 view .LVU100
 409              		.cfi_endproc
 410              	.LFE126:
 412              		.section	.rodata.UART1_SendData.str1.4,"aMS",%progbits,1
 413              		.align	2
 414              	.LC0:
 415 0000 2000     		.ascii	" \000"
 416 0002 0000     		.align	2
 417              	.LC1:
 418 0004 0D0A00   		.ascii	"\015\012\000"
 419              		.section	.text.UART1_SendData,"ax",%progbits
 420              		.align	1
 421              		.global	UART1_SendData
 422              		.syntax unified
 423              		.thumb
 424              		.thumb_func
 426              	UART1_SendData:
 427              	.LVL28:
 428              	.LFB127:
 108:MyHardWare/Src/uart.c ****   uint16_t i, j;
 429              		.loc 1 108 52 is_stmt 1 view -0
 430              		.cfi_startproc
 431              		@ args = 0, pretend = 0, frame = 16
 432              		@ frame_needed = 0, uses_anonymous_args = 0
 108:MyHardWare/Src/uart.c ****   uint16_t i, j;
 433              		.loc 1 108 52 is_stmt 0 view .LVU102
 434 0000 70B5     		push	{r4, r5, r6, lr}
 435              	.LCFI13:
 436              		.cfi_def_cfa_offset 16
 437              		.cfi_offset 4, -16
 438              		.cfi_offset 5, -12
 439              		.cfi_offset 6, -8
 440              		.cfi_offset 14, -4
 441 0002 84B0     		sub	sp, sp, #16
 442              	.LCFI14:
 443              		.cfi_def_cfa_offset 32
 444 0004 0646     		mov	r6, r0
 445 0006 0D46     		mov	r5, r1
 109:MyHardWare/Src/uart.c ****   char temp_str[16];
 446              		.loc 1 109 3 is_stmt 1 view .LVU103
 110:MyHardWare/Src/uart.c **** 
 447              		.loc 1 110 3 view .LVU104
 112:MyHardWare/Src/uart.c **** 
 448              		.loc 1 112 3 view .LVU105
 449              	.LVL29:
 112:MyHardWare/Src/uart.c **** 
 450              		.loc 1 112 10 is_stmt 0 view .LVU106
 451 0008 0024     		movs	r4, #0
 112:MyHardWare/Src/uart.c **** 
 452              		.loc 1 112 3 view .LVU107
 453 000a 17E0     		b	.L32
 454              	.LVL30:
 455              	.L33:
 116:MyHardWare/Src/uart.c ****       UART1_SendString(temp_str);
ARM GAS  /tmp/ccBfnoGs.s 			page 13


 456              		.loc 1 116 7 is_stmt 1 view .LVU108
 457 000c 6946     		mov	r1, sp
 458 000e 36F81200 		ldrh	r0, [r6, r2, lsl #1]
 459 0012 FFF7FEFF 		bl	Int16ToString
 460              	.LVL31:
 117:MyHardWare/Src/uart.c ****       UART1_SendString(" ");
 461              		.loc 1 117 7 view .LVU109
 462 0016 6846     		mov	r0, sp
 463 0018 FFF7FEFF 		bl	UART1_SendString
 464              	.LVL32:
 118:MyHardWare/Src/uart.c **** 
 465              		.loc 1 118 7 view .LVU110
 466 001c 0B48     		ldr	r0, .L36
 467 001e FFF7FEFF 		bl	UART1_SendString
 468              	.LVL33:
 114:MyHardWare/Src/uart.c ****       /* 将16位数据转换为字符串 */
 469              		.loc 1 114 39 discriminator 3 view .LVU111
 470 0022 0134     		adds	r4, r4, #1
 471              	.LVL34:
 114:MyHardWare/Src/uart.c ****       /* 将16位数据转换为字符串 */
 472              		.loc 1 114 39 is_stmt 0 discriminator 3 view .LVU112
 473 0024 A4B2     		uxth	r4, r4
 474              	.LVL35:
 475              	.L34:
 114:MyHardWare/Src/uart.c ****       /* 将16位数据转换为字符串 */
 476              		.loc 1 114 30 is_stmt 1 discriminator 1 view .LVU113
 114:MyHardWare/Src/uart.c ****       /* 将16位数据转换为字符串 */
 477              		.loc 1 114 20 is_stmt 0 discriminator 1 view .LVU114
 478 0026 04EB8403 		add	r3, r4, r4, lsl #2
 479 002a 5A00     		lsls	r2, r3, #1
 114:MyHardWare/Src/uart.c ****       /* 将16位数据转换为字符串 */
 480              		.loc 1 114 30 discriminator 1 view .LVU115
 481 002c B5EB430F 		cmp	r5, r3, lsl #1
 482 0030 ECDC     		bgt	.L33
 123:MyHardWare/Src/uart.c ****   }
 483              		.loc 1 123 5 is_stmt 1 view .LVU116
 484 0032 0748     		ldr	r0, .L36+4
 485 0034 FFF7FEFF 		bl	UART1_SendString
 486              	.LVL36:
 112:MyHardWare/Src/uart.c **** 
 487              		.loc 1 112 31 discriminator 2 view .LVU117
 488 0038 0134     		adds	r4, r4, #1
 489              	.LVL37:
 112:MyHardWare/Src/uart.c **** 
 490              		.loc 1 112 31 is_stmt 0 discriminator 2 view .LVU118
 491 003a A4B2     		uxth	r4, r4
 492              	.LVL38:
 493              	.L32:
 112:MyHardWare/Src/uart.c **** 
 494              		.loc 1 112 22 is_stmt 1 discriminator 1 view .LVU119
 112:MyHardWare/Src/uart.c **** 
 495              		.loc 1 112 17 is_stmt 0 discriminator 1 view .LVU120
 496 003c 04EB8403 		add	r3, r4, r4, lsl #2
 112:MyHardWare/Src/uart.c **** 
 497              		.loc 1 112 22 discriminator 1 view .LVU121
 498 0040 B5EB430F 		cmp	r5, r3, lsl #1
 499 0044 EFDC     		bgt	.L34
ARM GAS  /tmp/ccBfnoGs.s 			page 14


 125:MyHardWare/Src/uart.c **** 
 500              		.loc 1 125 1 view .LVU122
 501 0046 04B0     		add	sp, sp, #16
 502              	.LCFI15:
 503              		.cfi_def_cfa_offset 16
 504              		@ sp needed
 505 0048 70BD     		pop	{r4, r5, r6, pc}
 506              	.LVL39:
 507              	.L37:
 125:MyHardWare/Src/uart.c **** 
 508              		.loc 1 125 1 view .LVU123
 509 004a 00BF     		.align	2
 510              	.L36:
 511 004c 00000000 		.word	.LC0
 512 0050 04000000 		.word	.LC1
 513              		.cfi_endproc
 514              	.LFE127:
 516              		.section	.rodata.UART1_Test_Sequence.str1.4,"aMS",%progbits,1
 517              		.align	2
 518              	.LC3:
 519 0000 3D3D3D20 		.ascii	"=== UART Test Sequence ===\015\012\000"
 519      55415254 
 519      20546573 
 519      74205365 
 519      7175656E 
 520 001d 000000   		.align	2
 521              	.LC4:
 522 0020 0D0A3D3D 		.ascii	"\015\012=== End Test ===\015\012\000"
 522      3D20456E 
 522      64205465 
 522      7374203D 
 522      3D3D0D0A 
 523              		.section	.text.UART1_Test_Sequence,"ax",%progbits
 524              		.align	1
 525              		.global	UART1_Test_Sequence
 526              		.syntax unified
 527              		.thumb
 528              		.thumb_func
 530              	UART1_Test_Sequence:
 531              	.LFB129:
 164:MyHardWare/Src/uart.c **** 
 165:MyHardWare/Src/uart.c **** /**
 166:MyHardWare/Src/uart.c ****  * @brief  UART1测试函数 - 发送测试字节序列
 167:MyHardWare/Src/uart.c ****  * @param  None
 168:MyHardWare/Src/uart.c ****  * @retval None
 169:MyHardWare/Src/uart.c ****  */
 170:MyHardWare/Src/uart.c **** void UART1_Test_Sequence(void) {
 532              		.loc 1 170 32 is_stmt 1 view -0
 533              		.cfi_startproc
 534              		@ args = 0, pretend = 0, frame = 16
 535              		@ frame_needed = 0, uses_anonymous_args = 0
 536 0000 10B5     		push	{r4, lr}
 537              	.LCFI16:
 538              		.cfi_def_cfa_offset 8
 539              		.cfi_offset 4, -8
 540              		.cfi_offset 14, -4
 541 0002 84B0     		sub	sp, sp, #16
ARM GAS  /tmp/ccBfnoGs.s 			page 15


 542              	.LCFI17:
 543              		.cfi_def_cfa_offset 24
 171:MyHardWare/Src/uart.c ****   /* 发送测试字节序列来验证数据完整性 */
 172:MyHardWare/Src/uart.c ****   uint8_t test_bytes[] = {0x01, 0x02, 0x04, 0x08, 0x10, 0x20,
 544              		.loc 1 172 3 view .LVU125
 545              		.loc 1 172 11 is_stmt 0 view .LVU126
 546 0004 134A     		ldr	r2, .L45
 547 0006 01AB     		add	r3, sp, #4
 548 0008 07CA     		ldm	r2, {r0, r1, r2}
 549 000a 03C3     		stmia	r3!, {r0, r1}
 550 000c 23F8022B 		strh	r2, [r3], #2	@ movhi
 551 0010 120C     		lsrs	r2, r2, #16
 552 0012 1A70     		strb	r2, [r3]
 173:MyHardWare/Src/uart.c ****                           0x40, 0x80, 0xFF, 0x00, 0xF1};
 174:MyHardWare/Src/uart.c ****   uint16_t i;
 553              		.loc 1 174 3 is_stmt 1 view .LVU127
 175:MyHardWare/Src/uart.c **** 
 176:MyHardWare/Src/uart.c ****   UART1_SendString("=== UART Test Sequence ===\r\n");
 554              		.loc 1 176 3 view .LVU128
 555 0014 1048     		ldr	r0, .L45+4
 556 0016 FFF7FEFF 		bl	UART1_SendString
 557              	.LVL40:
 177:MyHardWare/Src/uart.c ****   for (i = 0; i < sizeof(test_bytes); i++) {
 558              		.loc 1 177 3 view .LVU129
 559              		.loc 1 177 10 is_stmt 0 view .LVU130
 560 001a 0024     		movs	r4, #0
 561              		.loc 1 177 3 view .LVU131
 562 001c 08E0     		b	.L39
 563              	.LVL41:
 564              	.L41:
 565              	.LBB2:
 178:MyHardWare/Src/uart.c ****     UART1_SendByte(test_bytes[i]);
 179:MyHardWare/Src/uart.c ****     /* 添加小延时 */
 180:MyHardWare/Src/uart.c ****     for (volatile uint32_t delay = 0; delay < 1000; delay++)
 566              		.loc 1 180 58 is_stmt 1 discriminator 3 view .LVU132
 567 001e 009B     		ldr	r3, [sp]
 568 0020 0133     		adds	r3, r3, #1
 569 0022 0093     		str	r3, [sp]
 570              	.L40:
 571              		.loc 1 180 45 discriminator 1 view .LVU133
 572 0024 009B     		ldr	r3, [sp]
 573 0026 B3F57A7F 		cmp	r3, #1000
 574 002a F8D3     		bcc	.L41
 575              	.LBE2:
 177:MyHardWare/Src/uart.c ****   for (i = 0; i < sizeof(test_bytes); i++) {
 576              		.loc 1 177 40 discriminator 2 view .LVU134
 577 002c 0134     		adds	r4, r4, #1
 578              	.LVL42:
 177:MyHardWare/Src/uart.c ****   for (i = 0; i < sizeof(test_bytes); i++) {
 579              		.loc 1 177 40 is_stmt 0 discriminator 2 view .LVU135
 580 002e A4B2     		uxth	r4, r4
 581              	.LVL43:
 582              	.L39:
 177:MyHardWare/Src/uart.c ****   for (i = 0; i < sizeof(test_bytes); i++) {
 583              		.loc 1 177 17 is_stmt 1 discriminator 1 view .LVU136
 584 0030 0A2C     		cmp	r4, #10
 585 0032 09D8     		bhi	.L44
ARM GAS  /tmp/ccBfnoGs.s 			page 16


 178:MyHardWare/Src/uart.c ****     UART1_SendByte(test_bytes[i]);
 586              		.loc 1 178 5 view .LVU137
 587 0034 04F11003 		add	r3, r4, #16
 588 0038 6B44     		add	r3, sp, r3
 589 003a 13F80C0C 		ldrb	r0, [r3, #-12]	@ zero_extendqisi2
 590 003e FFF7FEFF 		bl	UART1_SendByte
 591              	.LVL44:
 592              		.loc 1 180 5 view .LVU138
 593              	.LBB3:
 594              		.loc 1 180 10 view .LVU139
 595              		.loc 1 180 28 is_stmt 0 view .LVU140
 596 0042 0023     		movs	r3, #0
 597 0044 0093     		str	r3, [sp]
 598              		.loc 1 180 5 view .LVU141
 599 0046 EDE7     		b	.L40
 600              	.L44:
 601              	.LBE3:
 181:MyHardWare/Src/uart.c ****       ;
 182:MyHardWare/Src/uart.c ****   }
 183:MyHardWare/Src/uart.c ****   UART1_SendString("\r\n=== End Test ===\r\n");
 602              		.loc 1 183 3 is_stmt 1 view .LVU142
 603 0048 0448     		ldr	r0, .L45+8
 604 004a FFF7FEFF 		bl	UART1_SendString
 605              	.LVL45:
 184:MyHardWare/Src/uart.c **** }
 606              		.loc 1 184 1 is_stmt 0 view .LVU143
 607 004e 04B0     		add	sp, sp, #16
 608              	.LCFI18:
 609              		.cfi_def_cfa_offset 8
 610              		@ sp needed
 611 0050 10BD     		pop	{r4, pc}
 612              	.LVL46:
 613              	.L46:
 614              		.loc 1 184 1 view .LVU144
 615 0052 00BF     		.align	2
 616              	.L45:
 617 0054 00000000 		.word	.LANCHOR0
 618 0058 00000000 		.word	.LC3
 619 005c 20000000 		.word	.LC4
 620              		.cfi_endproc
 621              	.LFE129:
 623              		.section	.text.UART1_TX_Complete_Callback,"ax",%progbits
 624              		.align	1
 625              		.global	UART1_TX_Complete_Callback
 626              		.syntax unified
 627              		.thumb
 628              		.thumb_func
 630              	UART1_TX_Complete_Callback:
 631              	.LFB130:
 185:MyHardWare/Src/uart.c **** 
 186:MyHardWare/Src/uart.c **** /**
 187:MyHardWare/Src/uart.c ****  * @brief  UART1发送完成回调函数
 188:MyHardWare/Src/uart.c ****  * @param  None
 189:MyHardWare/Src/uart.c ****  * @retval None
 190:MyHardWare/Src/uart.c ****  */
 191:MyHardWare/Src/uart.c **** void UART1_TX_Complete_Callback(void) {
 632              		.loc 1 191 39 is_stmt 1 view -0
ARM GAS  /tmp/ccBfnoGs.s 			page 17


 633              		.cfi_startproc
 634              		@ args = 0, pretend = 0, frame = 0
 635              		@ frame_needed = 0, uses_anonymous_args = 0
 636              		@ link register save eliminated.
 192:MyHardWare/Src/uart.c ****   /* 发送完成回调函数 */
 193:MyHardWare/Src/uart.c ****   /* 可以在这里添加发送完成后的处理逻辑 */
 194:MyHardWare/Src/uart.c **** }
 637              		.loc 1 194 1 view .LVU146
 638 0000 7047     		bx	lr
 639              		.cfi_endproc
 640              	.LFE130:
 642              		.section	.text.__io_putchar,"ax",%progbits
 643              		.align	1
 644              		.global	__io_putchar
 645              		.syntax unified
 646              		.thumb
 647              		.thumb_func
 649              	__io_putchar:
 650              	.LVL47:
 651              	.LFB131:
 195:MyHardWare/Src/uart.c **** 
 196:MyHardWare/Src/uart.c **** int __io_putchar(int ch) {
 652              		.loc 1 196 26 view -0
 653              		.cfi_startproc
 654              		@ args = 0, pretend = 0, frame = 0
 655              		@ frame_needed = 0, uses_anonymous_args = 0
 656              		.loc 1 196 26 is_stmt 0 view .LVU148
 657 0000 10B5     		push	{r4, lr}
 658              	.LCFI19:
 659              		.cfi_def_cfa_offset 8
 660              		.cfi_offset 4, -8
 661              		.cfi_offset 14, -4
 662 0002 0446     		mov	r4, r0
 197:MyHardWare/Src/uart.c ****   UART1_SendByte((uint8_t)ch);
 663              		.loc 1 197 3 is_stmt 1 view .LVU149
 664 0004 C0B2     		uxtb	r0, r0
 665              	.LVL48:
 666              		.loc 1 197 3 is_stmt 0 view .LVU150
 667 0006 FFF7FEFF 		bl	UART1_SendByte
 668              	.LVL49:
 198:MyHardWare/Src/uart.c ****   return ch;
 669              		.loc 1 198 3 is_stmt 1 view .LVU151
 199:MyHardWare/Src/uart.c **** }...
 670              		.loc 1 199 1 is_stmt 0 view .LVU152
 671 000a 2046     		mov	r0, r4
 672 000c 10BD     		pop	{r4, pc}
 673              		.loc 1 199 1 view .LVU153
 674              		.cfi_endproc
 675              	.LFE131:
 677              		.section	.rodata
 678              		.align	2
 679              		.set	.LANCHOR0,. + 0
 680              	.LC2:
 681 0000 01020408 		.ascii	"\001\002\004\010\020 @\200\377\000\361"
 681      10204080 
 681      FF00F1
 682              		.text
ARM GAS  /tmp/ccBfnoGs.s 			page 18


 683              	.Letext0:
 684              		.file 2 "/usr/lib/gcc/arm-none-eabi/13.2.1/include/stdint.h"
 685              		.file 3 "CMSIS/stm32f4xx.h"
 686              		.file 4 "Lib/StdPeriphs/inc/stm32f4xx_gpio.h"
 687              		.file 5 "Lib/StdPeriphs/inc/stm32f4xx_usart.h"
 688              		.file 6 "Lib/StdPeriphs/inc/stm32f4xx_rcc.h"
ARM GAS  /tmp/ccBfnoGs.s 			page 19

