ARM GAS  /tmp/ccI8WcUc.s 			page 1


   1              		.cpu cortex-m4
   2              		.arch armv7e-m
   3              		.fpu fpv4-sp-d16
   4              		.eabi_attribute 27, 1
   5              		.eabi_attribute 28, 1
   6              		.eabi_attribute 20, 1
   7              		.eabi_attribute 21, 1
   8              		.eabi_attribute 23, 3
   9              		.eabi_attribute 24, 1
  10              		.eabi_attribute 25, 1
  11              		.eabi_attribute 26, 1
  12              		.eabi_attribute 30, 1
  13              		.eabi_attribute 34, 1
  14              		.eabi_attribute 18, 4
  15              		.file	"usart.c"
  16              		.text
  17              	.Ltext0:
  18              		.cfi_sections	.debug_frame
  19              		.file 1 "MyHardWare/Src/usart.c"
  20              		.section	.text.USART1_DMA_Init,"ax",%progbits
  21              		.align	1
  22              		.syntax unified
  23              		.thumb
  24              		.thumb_func
  26              	USART1_DMA_Init:
  27              	.LFB126:
   1:MyHardWare/Src/usart.c **** /***
   2:MyHardWare/Src/usart.c ****         *******************************************************************************************
   3:MyHardWare/Src/usart.c ****         *	@version V1.0
   4:MyHardWare/Src/usart.c ****         *  @date    2026-3-8
   5:MyHardWare/Src/usart.c ****         *	@author  еҸҚе®ўз§‘жҠҖ
   6:MyHardWare/Src/usart.c ****         *	@brief   usart жҺҘеҸЈзӣёе…іеҮҪж•°
   7:MyHardWare/Src/usart.c ****    ************************************************************************************************
   8:MyHardWare/Src/usart.c **** >>>>> ж–Үд»¶иҜҙжҳҺпјҡ
   9:MyHardWare/Src/usart.c ****         *
  10:MyHardWare/Src/usart.c ****         *  1.еҲқе§ӢеҢ– USART1 зҡ„еј•и„ҡ PA9/PA10пјҢ
  11:MyHardWare/Src/usart.c ****         *  2.й…ҚзҪ® USART1 е·ҘдҪңеңЁж”¶еҸ‘жЁЎејҸгҖҒж•°дҪҚ 8 дҪҚгҖҒеҒңжӯўдҪҚ
  12:MyHardWare/Src/usart.c ****             1дҪҚгҖҒж— ж ЎйӘҢгҖҒдёҚдҪҝз”ЁзЎ¬д»¶жҺ§еҲ¶жөҒжҺ§еҲ¶пјҢ
  13:MyHardWare/Src/usart.c ****         *
  14:MyHardWare/Src/usart.c **** дёІеҸЈзҡ„жіўзү№зҺҮи®ҫзҪ®дёә 115200пјҢиӢҘйңҖиҰҒжӣҙж”№жіўзү№зҺҮзӣҙжҺҘдҝ®ж”№ usart.h йҮҢзҡ„е®Ҹе®ҡд№ү
  15:MyHardWare/Src/usart.c **** USART1_BaudRateгҖӮ
  16:MyHardWare/Src/usart.c ****         *  3.йҮҚе®ҡд№ү fputc еҮҪж•°пјҢз”Ёд»Ҙж”ҜжҢҒдҪҝз”Ё printf еҮҪж•°жү“еҚ°ж•°жҚ®
  17:MyHardWare/Src/usart.c ****         *  4.дҪҝз”Ё TIM7 еҹәжң¬е®ҡж—¶еҷЁжҜҸ 100us жЈҖжҹҘзҺҜеҪўзј“еҶІйҳҹеҲ—пјҢе®һзҺ°жҷәиғҪ DMA
  18:MyHardWare/Src/usart.c **** дј иҫ“жҺ§еҲ¶
  19:MyHardWare/Src/usart.c ****         *
  20:MyHardWare/Src/usart.c ****         *******************************************************************************************
  21:MyHardWare/Src/usart.c **** ***/
  22:MyHardWare/Src/usart.c **** 
  23:MyHardWare/Src/usart.c **** #include "usart.h"
  24:MyHardWare/Src/usart.c **** #include "led.h"
  25:MyHardWare/Src/usart.c **** #include "oled.h"
  26:MyHardWare/Src/usart.c **** #include "stm32f4xx.h"
  27:MyHardWare/Src/usart.c **** #include "stm32f4xx_dma.h"
  28:MyHardWare/Src/usart.c **** #include <stdio.h>
  29:MyHardWare/Src/usart.c **** 
  30:MyHardWare/Src/usart.c **** // DMA еҸ‘йҖҒзј“еҶІеҢәпјҢеӨ§е°Ҹдёә 256 еӯ—иҠӮ
  31:MyHardWare/Src/usart.c **** static uint8_t dma_tx_buffer[USART_DMA_TX_BUFFER_SIZE];
ARM GAS  /tmp/ccI8WcUc.s 			page 2


  32:MyHardWare/Src/usart.c **** // DMA жҺҘж”¶зј“еҶІеҢәпјҢеӨ§е°Ҹдёә 256 еӯ—иҠӮ
  33:MyHardWare/Src/usart.c **** static uint8_t dma_rx_buffer[USART_DMA_RX_BUFFER_SIZE];
  34:MyHardWare/Src/usart.c **** // еҸ‘йҖҒзҺҜеҪўзј“еҶІеҢәпјҢз”ЁдәҺеӯҳеӮЁеҫ…еҸ‘йҖҒзҡ„ж•°жҚ®
  35:MyHardWare/Src/usart.c **** RingBuffer tx_queue;
  36:MyHardWare/Src/usart.c **** // жҺҘж”¶зҺҜеҪўзј“еҶІеҢәпјҢз”ЁдәҺеӯҳеӮЁжҺҘж”¶еҲ°зҡ„ж•°жҚ®
  37:MyHardWare/Src/usart.c **** RingBuffer rx_queue;
  38:MyHardWare/Src/usart.c **** 
  39:MyHardWare/Src/usart.c **** // DMA еҸ‘йҖҒе®ҢжҲҗж Үеҝ—дҪҚ
  40:MyHardWare/Src/usart.c **** volatile uint8_t dma_tx_transfer_complete = 0;
  41:MyHardWare/Src/usart.c **** // DMA жҺҘж”¶е®ҢжҲҗж Үеҝ—дҪҚ
  42:MyHardWare/Src/usart.c **** volatile uint8_t dma_rx_transfer_complete = 0;
  43:MyHardWare/Src/usart.c **** // и®°еҪ•дёҠж¬Ў DMA дј иҫ“зҡ„ж•°жҚ®йҮҸ
  44:MyHardWare/Src/usart.c **** static uint16_t last_dma_tx_count = 0;
  45:MyHardWare/Src/usart.c **** // еҮҪж•°еЈ°жҳҺ
  46:MyHardWare/Src/usart.c **** static void USART1_DMA_Init(void);
  47:MyHardWare/Src/usart.c **** static void TIM7_Config(void);
  48:MyHardWare/Src/usart.c **** static void TIM7_EnableIRQ(void);
  49:MyHardWare/Src/usart.c **** static void TIM7_DisableIRQ(void);
  50:MyHardWare/Src/usart.c **** 
  51:MyHardWare/Src/usart.c **** /**
  52:MyHardWare/Src/usart.c ****  * @brief  USART1 DMA еҲқе§ӢеҢ–й…ҚзҪ®
  53:MyHardWare/Src/usart.c ****  *         й…ҚзҪ® DMA2 Stream7 з”ЁдәҺ USART1 TXпјҢDMA2 Stream2 з”ЁдәҺ USART1 RX
  54:MyHardWare/Src/usart.c ****  *         дҪҝз”Ё DMA Channel4пјҢеӯ—иҠӮдј иҫ“жЁЎејҸпјҢдҪҝиғҪдёӯж–ӯ
  55:MyHardWare/Src/usart.c ****  */
  56:MyHardWare/Src/usart.c **** static void USART1_DMA_Init(void) {
  28              		.loc 1 56 35 view -0
  29              		.cfi_startproc
  30              		@ args = 0, pretend = 0, frame = 64
  31              		@ frame_needed = 0, uses_anonymous_args = 0
  32 0000 F0B5     		push	{r4, r5, r6, r7, lr}
  33              	.LCFI0:
  34              		.cfi_def_cfa_offset 20
  35              		.cfi_offset 4, -20
  36              		.cfi_offset 5, -16
  37              		.cfi_offset 6, -12
  38              		.cfi_offset 7, -8
  39              		.cfi_offset 14, -4
  40 0002 91B0     		sub	sp, sp, #68
  41              	.LCFI1:
  42              		.cfi_def_cfa_offset 88
  57:MyHardWare/Src/usart.c ****   DMA_InitTypeDef DMA_InitStructure;
  43              		.loc 1 57 3 view .LVU1
  58:MyHardWare/Src/usart.c ****   NVIC_InitTypeDef NVIC_InitStructure;
  44              		.loc 1 58 3 view .LVU2
  59:MyHardWare/Src/usart.c **** 
  60:MyHardWare/Src/usart.c ****   // дҪҝиғҪ DMA2 ж—¶й’ҹ
  61:MyHardWare/Src/usart.c ****   RCC_AHB1PeriphClockCmd(RCC_AHB1Periph_DMA2, ENABLE);
  45              		.loc 1 61 3 view .LVU3
  46 0004 0121     		movs	r1, #1
  47 0006 4FF48000 		mov	r0, #4194304
  48 000a FFF7FEFF 		bl	RCC_AHB1PeriphClockCmd
  49              	.LVL0:
  62:MyHardWare/Src/usart.c **** 
  63:MyHardWare/Src/usart.c ****   // й…ҚзҪ® DMA2 Stream2 (RX) зҡ„дёӯж–ӯдјҳе…Ҳзә§
  64:MyHardWare/Src/usart.c ****   NVIC_InitStructure.NVIC_IRQChannel = DMA2_Stream2_IRQn;
  50              		.loc 1 64 3 view .LVU4
  51              		.loc 1 64 38 is_stmt 0 view .LVU5
ARM GAS  /tmp/ccI8WcUc.s 			page 3


  52 000e 3A23     		movs	r3, #58
  53 0010 8DF80030 		strb	r3, [sp]
  65:MyHardWare/Src/usart.c ****   NVIC_InitStructure.NVIC_IRQChannelPreemptionPriority = 0;
  54              		.loc 1 65 3 is_stmt 1 view .LVU6
  55              		.loc 1 65 56 is_stmt 0 view .LVU7
  56 0014 0025     		movs	r5, #0
  57 0016 8DF80150 		strb	r5, [sp, #1]
  66:MyHardWare/Src/usart.c ****   NVIC_InitStructure.NVIC_IRQChannelSubPriority = 1;
  58              		.loc 1 66 3 is_stmt 1 view .LVU8
  59              		.loc 1 66 49 is_stmt 0 view .LVU9
  60 001a 0124     		movs	r4, #1
  61 001c 8DF80240 		strb	r4, [sp, #2]
  67:MyHardWare/Src/usart.c ****   NVIC_InitStructure.NVIC_IRQChannelCmd = ENABLE;
  62              		.loc 1 67 3 is_stmt 1 view .LVU10
  63              		.loc 1 67 41 is_stmt 0 view .LVU11
  64 0020 8DF80340 		strb	r4, [sp, #3]
  68:MyHardWare/Src/usart.c ****   NVIC_Init(&NVIC_InitStructure);
  65              		.loc 1 68 3 is_stmt 1 view .LVU12
  66 0024 6846     		mov	r0, sp
  67 0026 FFF7FEFF 		bl	NVIC_Init
  68              	.LVL1:
  69:MyHardWare/Src/usart.c ****   // й…ҚзҪ® DMA2 Stream7 (TX) зҡ„дёӯж–ӯдјҳе…Ҳзә§
  70:MyHardWare/Src/usart.c ****   NVIC_InitStructure.NVIC_IRQChannel = DMA2_Stream7_IRQn;
  69              		.loc 1 70 3 view .LVU13
  70              		.loc 1 70 38 is_stmt 0 view .LVU14
  71 002a 4623     		movs	r3, #70
  72 002c 8DF80030 		strb	r3, [sp]
  71:MyHardWare/Src/usart.c ****   NVIC_InitStructure.NVIC_IRQChannelPreemptionPriority = 0;
  73              		.loc 1 71 3 is_stmt 1 view .LVU15
  74              		.loc 1 71 56 is_stmt 0 view .LVU16
  75 0030 8DF80150 		strb	r5, [sp, #1]
  72:MyHardWare/Src/usart.c ****   NVIC_InitStructure.NVIC_IRQChannelSubPriority = 1;
  76              		.loc 1 72 3 is_stmt 1 view .LVU17
  77              		.loc 1 72 49 is_stmt 0 view .LVU18
  78 0034 8DF80240 		strb	r4, [sp, #2]
  73:MyHardWare/Src/usart.c ****   NVIC_InitStructure.NVIC_IRQChannelCmd = ENABLE;
  79              		.loc 1 73 3 is_stmt 1 view .LVU19
  80              		.loc 1 73 41 is_stmt 0 view .LVU20
  81 0038 8DF80340 		strb	r4, [sp, #3]
  74:MyHardWare/Src/usart.c ****   NVIC_Init(&NVIC_InitStructure);
  82              		.loc 1 74 3 is_stmt 1 view .LVU21
  83 003c 6846     		mov	r0, sp
  84 003e FFF7FEFF 		bl	NVIC_Init
  85              	.LVL2:
  75:MyHardWare/Src/usart.c ****   // DMA TX й…ҚзҪ® (DMA2 Stream7, Channel4) - еҶ…еӯҳеҲ°еӨ–и®ҫ
  76:MyHardWare/Src/usart.c ****   DMA_DeInit(DMA2_Stream7);
  86              		.loc 1 76 3 view .LVU22
  87 0042 2F48     		ldr	r0, .L5
  88 0044 FFF7FEFF 		bl	DMA_DeInit
  89              	.LVL3:
  77:MyHardWare/Src/usart.c ****   while (DMA_GetCmdStatus(DMA2_Stream7) != DISABLE)
  90              		.loc 1 77 3 view .LVU23
  91              	.L2:
  92              		.loc 1 77 41 discriminator 1 view .LVU24
  93              		.loc 1 77 10 is_stmt 0 discriminator 1 view .LVU25
  94 0048 2D48     		ldr	r0, .L5
  95 004a FFF7FEFF 		bl	DMA_GetCmdStatus
ARM GAS  /tmp/ccI8WcUc.s 			page 4


  96              	.LVL4:
  97              		.loc 1 77 41 discriminator 1 view .LVU26
  98 004e 0028     		cmp	r0, #0
  99 0050 FAD1     		bne	.L2
  78:MyHardWare/Src/usart.c ****     ;
  79:MyHardWare/Src/usart.c ****   DMA_InitStructure.DMA_Channel = DMA_Channel_4;
 100              		.loc 1 79 3 is_stmt 1 view .LVU27
 101              		.loc 1 79 33 is_stmt 0 view .LVU28
 102 0052 4FF00063 		mov	r3, #134217728
 103 0056 0193     		str	r3, [sp, #4]
  80:MyHardWare/Src/usart.c ****   DMA_InitStructure.DMA_PeripheralBaseAddr = (uint32_t) & (USART1->DR);
 104              		.loc 1 80 3 is_stmt 1 view .LVU29
 105              		.loc 1 80 44 is_stmt 0 view .LVU30
 106 0058 2A4B     		ldr	r3, .L5+4
 107 005a 0293     		str	r3, [sp, #8]
  81:MyHardWare/Src/usart.c ****   DMA_InitStructure.DMA_Memory0BaseAddr = 0;
 108              		.loc 1 81 3 is_stmt 1 view .LVU31
 109              		.loc 1 81 41 is_stmt 0 view .LVU32
 110 005c 0023     		movs	r3, #0
 111 005e 0393     		str	r3, [sp, #12]
  82:MyHardWare/Src/usart.c ****   DMA_InitStructure.DMA_DIR = DMA_DIR_MemoryToPeripheral;
 112              		.loc 1 82 3 is_stmt 1 view .LVU33
 113              		.loc 1 82 29 is_stmt 0 view .LVU34
 114 0060 4022     		movs	r2, #64
 115 0062 0492     		str	r2, [sp, #16]
  83:MyHardWare/Src/usart.c ****   DMA_InitStructure.DMA_BufferSize = 0;
 116              		.loc 1 83 3 is_stmt 1 view .LVU35
 117              		.loc 1 83 36 is_stmt 0 view .LVU36
 118 0064 0593     		str	r3, [sp, #20]
  84:MyHardWare/Src/usart.c ****   DMA_InitStructure.DMA_PeripheralInc = DMA_PeripheralInc_Disable;
 119              		.loc 1 84 3 is_stmt 1 view .LVU37
 120              		.loc 1 84 39 is_stmt 0 view .LVU38
 121 0066 0693     		str	r3, [sp, #24]
  85:MyHardWare/Src/usart.c ****   DMA_InitStructure.DMA_MemoryInc = DMA_MemoryInc_Enable;
 122              		.loc 1 85 3 is_stmt 1 view .LVU39
 123              		.loc 1 85 35 is_stmt 0 view .LVU40
 124 0068 4FF48062 		mov	r2, #1024
 125 006c 0792     		str	r2, [sp, #28]
  86:MyHardWare/Src/usart.c ****   DMA_InitStructure.DMA_PeripheralDataSize = DMA_PeripheralDataSize_Byte;
 126              		.loc 1 86 3 is_stmt 1 view .LVU41
 127              		.loc 1 86 44 is_stmt 0 view .LVU42
 128 006e 0893     		str	r3, [sp, #32]
  87:MyHardWare/Src/usart.c ****   DMA_InitStructure.DMA_MemoryDataSize = DMA_MemoryDataSize_Byte;
 129              		.loc 1 87 3 is_stmt 1 view .LVU43
 130              		.loc 1 87 40 is_stmt 0 view .LVU44
 131 0070 0993     		str	r3, [sp, #36]
  88:MyHardWare/Src/usart.c ****   DMA_InitStructure.DMA_Mode = DMA_Mode_Normal;
 132              		.loc 1 88 3 is_stmt 1 view .LVU45
 133              		.loc 1 88 30 is_stmt 0 view .LVU46
 134 0072 0A93     		str	r3, [sp, #40]
  89:MyHardWare/Src/usart.c ****   DMA_InitStructure.DMA_Priority = DMA_Priority_High;
 135              		.loc 1 89 3 is_stmt 1 view .LVU47
 136              		.loc 1 89 34 is_stmt 0 view .LVU48
 137 0074 4FF40032 		mov	r2, #131072
 138 0078 0B92     		str	r2, [sp, #44]
  90:MyHardWare/Src/usart.c ****   DMA_InitStructure.DMA_FIFOMode = DMA_FIFOMode_Disable;
 139              		.loc 1 90 3 is_stmt 1 view .LVU49
ARM GAS  /tmp/ccI8WcUc.s 			page 5


 140              		.loc 1 90 34 is_stmt 0 view .LVU50
 141 007a 0C93     		str	r3, [sp, #48]
  91:MyHardWare/Src/usart.c ****   DMA_InitStructure.DMA_FIFOThreshold = DMA_FIFOThreshold_HalfFull;
 142              		.loc 1 91 3 is_stmt 1 view .LVU51
 143              		.loc 1 91 39 is_stmt 0 view .LVU52
 144 007c 0122     		movs	r2, #1
 145 007e 0D92     		str	r2, [sp, #52]
  92:MyHardWare/Src/usart.c ****   DMA_InitStructure.DMA_MemoryBurst = DMA_MemoryBurst_Single;
 146              		.loc 1 92 3 is_stmt 1 view .LVU53
 147              		.loc 1 92 37 is_stmt 0 view .LVU54
 148 0080 0E93     		str	r3, [sp, #56]
  93:MyHardWare/Src/usart.c ****   DMA_InitStructure.DMA_PeripheralBurst = DMA_PeripheralBurst_Single;
 149              		.loc 1 93 3 is_stmt 1 view .LVU55
 150              		.loc 1 93 41 is_stmt 0 view .LVU56
 151 0082 0F93     		str	r3, [sp, #60]
  94:MyHardWare/Src/usart.c ****   DMA_Init(DMA2_Stream7, &DMA_InitStructure);
 152              		.loc 1 94 3 is_stmt 1 view .LVU57
 153 0084 01A9     		add	r1, sp, #4
 154 0086 1E48     		ldr	r0, .L5
 155 0088 FFF7FEFF 		bl	DMA_Init
 156              	.LVL5:
  95:MyHardWare/Src/usart.c **** 
  96:MyHardWare/Src/usart.c ****   // DMA RX й…ҚзҪ® (DMA2 Stream2, Channel4) - еӨ–и®ҫдёәеҶ…еӯҳ
  97:MyHardWare/Src/usart.c ****   DMA_DeInit(DMA2_Stream2);
 157              		.loc 1 97 3 view .LVU58
 158 008c 1E48     		ldr	r0, .L5+8
 159 008e FFF7FEFF 		bl	DMA_DeInit
 160              	.LVL6:
  98:MyHardWare/Src/usart.c ****   while (DMA_GetCmdStatus(DMA2_Stream7) != DISABLE)
 161              		.loc 1 98 3 view .LVU59
 162              	.L3:
 163              		.loc 1 98 41 discriminator 1 view .LVU60
 164              		.loc 1 98 10 is_stmt 0 discriminator 1 view .LVU61
 165 0092 1B48     		ldr	r0, .L5
 166 0094 FFF7FEFF 		bl	DMA_GetCmdStatus
 167              	.LVL7:
 168              		.loc 1 98 41 discriminator 1 view .LVU62
 169 0098 0028     		cmp	r0, #0
 170 009a FAD1     		bne	.L3
  99:MyHardWare/Src/usart.c ****     ;
 100:MyHardWare/Src/usart.c ****   DMA_InitStructure.DMA_Channel = DMA_Channel_4;
 171              		.loc 1 100 3 is_stmt 1 view .LVU63
 172              		.loc 1 100 33 is_stmt 0 view .LVU64
 173 009c 4FF00063 		mov	r3, #134217728
 174 00a0 0193     		str	r3, [sp, #4]
 101:MyHardWare/Src/usart.c ****   DMA_InitStructure.DMA_PeripheralBaseAddr = (uint32_t) & (USART1->DR);
 175              		.loc 1 101 3 is_stmt 1 view .LVU65
 176              		.loc 1 101 44 is_stmt 0 view .LVU66
 177 00a2 184B     		ldr	r3, .L5+4
 178 00a4 0293     		str	r3, [sp, #8]
 102:MyHardWare/Src/usart.c ****   DMA_InitStructure.DMA_Memory0BaseAddr = 0;
 179              		.loc 1 102 3 is_stmt 1 view .LVU67
 180              		.loc 1 102 41 is_stmt 0 view .LVU68
 181 00a6 0024     		movs	r4, #0
 182 00a8 0394     		str	r4, [sp, #12]
 103:MyHardWare/Src/usart.c ****   DMA_InitStructure.DMA_DIR = DMA_DIR_PeripheralToMemory;
 183              		.loc 1 103 3 is_stmt 1 view .LVU69
ARM GAS  /tmp/ccI8WcUc.s 			page 6


 184              		.loc 1 103 29 is_stmt 0 view .LVU70
 185 00aa 0494     		str	r4, [sp, #16]
 104:MyHardWare/Src/usart.c ****   DMA_InitStructure.DMA_BufferSize = 0;
 186              		.loc 1 104 3 is_stmt 1 view .LVU71
 187              		.loc 1 104 36 is_stmt 0 view .LVU72
 188 00ac 0594     		str	r4, [sp, #20]
 105:MyHardWare/Src/usart.c ****   DMA_InitStructure.DMA_PeripheralInc = DMA_PeripheralInc_Disable;
 189              		.loc 1 105 3 is_stmt 1 view .LVU73
 190              		.loc 1 105 39 is_stmt 0 view .LVU74
 191 00ae 0694     		str	r4, [sp, #24]
 106:MyHardWare/Src/usart.c ****   DMA_InitStructure.DMA_MemoryInc = DMA_MemoryInc_Enable;
 192              		.loc 1 106 3 is_stmt 1 view .LVU75
 193              		.loc 1 106 35 is_stmt 0 view .LVU76
 194 00b0 4FF48063 		mov	r3, #1024
 195 00b4 0793     		str	r3, [sp, #28]
 107:MyHardWare/Src/usart.c ****   DMA_InitStructure.DMA_PeripheralDataSize = DMA_PeripheralDataSize_Byte;
 196              		.loc 1 107 3 is_stmt 1 view .LVU77
 197              		.loc 1 107 44 is_stmt 0 view .LVU78
 198 00b6 0894     		str	r4, [sp, #32]
 108:MyHardWare/Src/usart.c ****   DMA_InitStructure.DMA_MemoryDataSize = DMA_MemoryDataSize_Byte;
 199              		.loc 1 108 3 is_stmt 1 view .LVU79
 200              		.loc 1 108 40 is_stmt 0 view .LVU80
 201 00b8 0994     		str	r4, [sp, #36]
 109:MyHardWare/Src/usart.c ****   DMA_InitStructure.DMA_Mode = DMA_Mode_Normal;
 202              		.loc 1 109 3 is_stmt 1 view .LVU81
 203              		.loc 1 109 30 is_stmt 0 view .LVU82
 204 00ba 0A94     		str	r4, [sp, #40]
 110:MyHardWare/Src/usart.c ****   DMA_InitStructure.DMA_Priority = DMA_Priority_High;
 205              		.loc 1 110 3 is_stmt 1 view .LVU83
 206              		.loc 1 110 34 is_stmt 0 view .LVU84
 207 00bc 4FF40033 		mov	r3, #131072
 208 00c0 0B93     		str	r3, [sp, #44]
 111:MyHardWare/Src/usart.c ****   DMA_InitStructure.DMA_FIFOMode = DMA_FIFOMode_Disable;
 209              		.loc 1 111 3 is_stmt 1 view .LVU85
 210              		.loc 1 111 34 is_stmt 0 view .LVU86
 211 00c2 0C94     		str	r4, [sp, #48]
 112:MyHardWare/Src/usart.c ****   DMA_InitStructure.DMA_FIFOThreshold = DMA_FIFOThreshold_HalfFull;
 212              		.loc 1 112 3 is_stmt 1 view .LVU87
 213              		.loc 1 112 39 is_stmt 0 view .LVU88
 214 00c4 0126     		movs	r6, #1
 215 00c6 0D96     		str	r6, [sp, #52]
 113:MyHardWare/Src/usart.c ****   DMA_InitStructure.DMA_MemoryBurst = DMA_MemoryBurst_Single;
 216              		.loc 1 113 3 is_stmt 1 view .LVU89
 217              		.loc 1 113 37 is_stmt 0 view .LVU90
 218 00c8 0E94     		str	r4, [sp, #56]
 114:MyHardWare/Src/usart.c ****   DMA_InitStructure.DMA_PeripheralBurst = DMA_PeripheralBurst_Single;
 219              		.loc 1 114 3 is_stmt 1 view .LVU91
 220              		.loc 1 114 41 is_stmt 0 view .LVU92
 221 00ca 0F94     		str	r4, [sp, #60]
 115:MyHardWare/Src/usart.c ****   DMA_Init(DMA2_Stream2, &DMA_InitStructure);
 222              		.loc 1 115 3 is_stmt 1 view .LVU93
 223 00cc 0E4D     		ldr	r5, .L5+8
 224 00ce 01A9     		add	r1, sp, #4
 225 00d0 2846     		mov	r0, r5
 226 00d2 FFF7FEFF 		bl	DMA_Init
 227              	.LVL8:
 116:MyHardWare/Src/usart.c **** 
ARM GAS  /tmp/ccI8WcUc.s 			page 7


 117:MyHardWare/Src/usart.c ****   // дҪҝиғҪ DMA2 Stream2 (RX) зҡ„дј иҫ“е®ҢжҲҗдёӯж–ӯ
 118:MyHardWare/Src/usart.c ****   DMA_ITConfig(DMA2_Stream2, DMA_IT_TC, ENABLE);
 228              		.loc 1 118 3 view .LVU94
 229 00d6 3246     		mov	r2, r6
 230 00d8 1021     		movs	r1, #16
 231 00da 2846     		mov	r0, r5
 232 00dc FFF7FEFF 		bl	DMA_ITConfig
 233              	.LVL9:
 119:MyHardWare/Src/usart.c ****   DMA_ITConfig(DMA2_Stream7, DMA_IT_TC, ENABLE);
 234              		.loc 1 119 3 view .LVU95
 235 00e0 074F     		ldr	r7, .L5
 236 00e2 3246     		mov	r2, r6
 237 00e4 1021     		movs	r1, #16
 238 00e6 3846     		mov	r0, r7
 239 00e8 FFF7FEFF 		bl	DMA_ITConfig
 240              	.LVL10:
 120:MyHardWare/Src/usart.c **** 
 121:MyHardWare/Src/usart.c ****   // дҪҝиғҪ DMA йҖҡйҒ“
 122:MyHardWare/Src/usart.c ****   DMA_Cmd(DMA2_Stream7, DISABLE);
 241              		.loc 1 122 3 view .LVU96
 242 00ec 2146     		mov	r1, r4
 243 00ee 3846     		mov	r0, r7
 244 00f0 FFF7FEFF 		bl	DMA_Cmd
 245              	.LVL11:
 123:MyHardWare/Src/usart.c ****   DMA_Cmd(DMA2_Stream2, DISABLE);
 246              		.loc 1 123 3 view .LVU97
 247 00f4 2146     		mov	r1, r4
 248 00f6 2846     		mov	r0, r5
 249 00f8 FFF7FEFF 		bl	DMA_Cmd
 250              	.LVL12:
 124:MyHardWare/Src/usart.c ****   // DMA_Cmd(DMA2_Stream7, ENABLE);
 125:MyHardWare/Src/usart.c ****   // DMA_Cmd(DMA2_Stream2, ENABLE);
 126:MyHardWare/Src/usart.c **** }
 251              		.loc 1 126 1 is_stmt 0 view .LVU98
 252 00fc 11B0     		add	sp, sp, #68
 253              	.LCFI2:
 254              		.cfi_def_cfa_offset 20
 255              		@ sp needed
 256 00fe F0BD     		pop	{r4, r5, r6, r7, pc}
 257              	.L6:
 258              		.align	2
 259              	.L5:
 260 0100 B8640240 		.word	1073898680
 261 0104 04100140 		.word	1073811460
 262 0108 40640240 		.word	1073898560
 263              		.cfi_endproc
 264              	.LFE126:
 266              		.section	.text.TIM7_Config,"ax",%progbits
 267              		.align	1
 268              		.syntax unified
 269              		.thumb
 270              		.thumb_func
 272              	TIM7_Config:
 273              	.LFB127:
 127:MyHardWare/Src/usart.c **** 
 128:MyHardWare/Src/usart.c **** /**
 129:MyHardWare/Src/usart.c ****  * @brief  TIM7 е®ҡж—¶еҷЁй…ҚзҪ®пјҢе®ҡж—¶ 100us
ARM GAS  /tmp/ccI8WcUc.s 			page 8


 130:MyHardWare/Src/usart.c ****  *         STM32F407 зі»з»ҹж—¶й’ҹдёә 168MHzпјҢAPB1 ж—¶й’ҹдёә 42MHz
 131:MyHardWare/Src/usart.c ****  *         prescaler = 4200 - 1, еҲҷи®Ўж•°еҷЁйў‘зҺҮ = 42MHz / 4200 = 10kHz (е‘Ёжңҹ 0.1ms
 132:MyHardWare/Src/usart.c ****  * = 100us) period = 1 - 1, еҲҷжәўеҮәж—¶й—ҙ = 10kHz / 1 = 10kHzпјҢеҚі 100us
 133:MyHardWare/Src/usart.c ****  *         з”ЁдәҺе®ҡжңҹжЈҖжҹҘзҺҜеҪўзј“еҶІйҳҹеҲ—пјҢжңүж•°жҚ®ж—¶еҗҜеҠЁ DMA дј иҫ“
 134:MyHardWare/Src/usart.c ****  */
 135:MyHardWare/Src/usart.c **** static void TIM7_Config(void) {
 274              		.loc 1 135 31 is_stmt 1 view -0
 275              		.cfi_startproc
 276              		@ args = 0, pretend = 0, frame = 16
 277              		@ frame_needed = 0, uses_anonymous_args = 0
 278 0000 30B5     		push	{r4, r5, lr}
 279              	.LCFI3:
 280              		.cfi_def_cfa_offset 12
 281              		.cfi_offset 4, -12
 282              		.cfi_offset 5, -8
 283              		.cfi_offset 14, -4
 284 0002 85B0     		sub	sp, sp, #20
 285              	.LCFI4:
 286              		.cfi_def_cfa_offset 32
 136:MyHardWare/Src/usart.c ****   TIM_TimeBaseInitTypeDef TIM_TimeBaseInitStruct;
 287              		.loc 1 136 3 view .LVU100
 137:MyHardWare/Src/usart.c ****   NVIC_InitTypeDef NVIC_InitStructure;
 288              		.loc 1 137 3 view .LVU101
 138:MyHardWare/Src/usart.c **** 
 139:MyHardWare/Src/usart.c ****   // дҪҝиғҪ TIM7 ж—¶й’ҹ
 140:MyHardWare/Src/usart.c ****   RCC_APB1PeriphClockCmd(RCC_APB1Periph_TIM7, ENABLE);
 289              		.loc 1 140 3 view .LVU102
 290 0004 0121     		movs	r1, #1
 291 0006 2020     		movs	r0, #32
 292 0008 FFF7FEFF 		bl	RCC_APB1PeriphClockCmd
 293              	.LVL13:
 141:MyHardWare/Src/usart.c **** 
 142:MyHardWare/Src/usart.c ****   // й…ҚзҪ® TIM7 ж—¶еҹәеҸӮж•°
 143:MyHardWare/Src/usart.c ****   TIM_TimeBaseInitStruct.TIM_Prescaler =
 294              		.loc 1 143 3 view .LVU103
 295              		.loc 1 143 40 is_stmt 0 view .LVU104
 296 000c 40F2A313 		movw	r3, #419
 297 0010 ADF80430 		strh	r3, [sp, #4]	@ movhi
 144:MyHardWare/Src/usart.c ****       420 - 1; // йў„еҲҶйў‘еҷЁпјҢ42MHz / 4200 = 10kHz
 145:MyHardWare/Src/usart.c ****   TIM_TimeBaseInitStruct.TIM_CounterMode = TIM_CounterMode_Up;
 298              		.loc 1 145 3 is_stmt 1 view .LVU105
 299              		.loc 1 145 42 is_stmt 0 view .LVU106
 300 0014 0024     		movs	r4, #0
 301 0016 ADF80640 		strh	r4, [sp, #6]	@ movhi
 146:MyHardWare/Src/usart.c ****   TIM_TimeBaseInitStruct.TIM_Period =
 302              		.loc 1 146 3 is_stmt 1 view .LVU107
 303              		.loc 1 146 37 is_stmt 0 view .LVU108
 304 001a 0923     		movs	r3, #9
 305 001c 0293     		str	r3, [sp, #8]
 147:MyHardWare/Src/usart.c ****       10 - 1; // иҮӘеҠЁйҮҚиЈ…иҪҪеҖјпјҢ10kHz / 1 = 10kHz (100us)
 148:MyHardWare/Src/usart.c ****   TIM_TimeBaseInitStruct.TIM_ClockDivision = TIM_CKD_DIV1;
 306              		.loc 1 148 3 is_stmt 1 view .LVU109
 307              		.loc 1 148 44 is_stmt 0 view .LVU110
 308 001e ADF80C40 		strh	r4, [sp, #12]	@ movhi
 149:MyHardWare/Src/usart.c ****   TIM_TimeBaseInit(TIM7, &TIM_TimeBaseInitStruct);
 309              		.loc 1 149 3 is_stmt 1 view .LVU111
 310 0022 0F4D     		ldr	r5, .L9
ARM GAS  /tmp/ccI8WcUc.s 			page 9


 311 0024 01A9     		add	r1, sp, #4
 312 0026 2846     		mov	r0, r5
 313 0028 FFF7FEFF 		bl	TIM_TimeBaseInit
 314              	.LVL14:
 150:MyHardWare/Src/usart.c **** 
 151:MyHardWare/Src/usart.c ****   // жё…йҷӨжӣҙж–°дёӯж–ӯж Үеҝ—пјҢйҳІжӯўз«ӢеҚіи§ҰеҸ‘дёӯж–ӯ
 152:MyHardWare/Src/usart.c ****   TIM_ClearFlag(TIM7, TIM_FLAG_Update);
 315              		.loc 1 152 3 view .LVU112
 316 002c 0121     		movs	r1, #1
 317 002e 2846     		mov	r0, r5
 318 0030 FFF7FEFF 		bl	TIM_ClearFlag
 319              	.LVL15:
 153:MyHardWare/Src/usart.c **** 
 154:MyHardWare/Src/usart.c ****   // дҪҝиғҪжӣҙж–°дёӯж–ӯ
 155:MyHardWare/Src/usart.c ****   TIM_ITConfig(TIM7, TIM_IT_Update, ENABLE);
 320              		.loc 1 155 3 view .LVU113
 321 0034 0122     		movs	r2, #1
 322 0036 1146     		mov	r1, r2
 323 0038 2846     		mov	r0, r5
 324 003a FFF7FEFF 		bl	TIM_ITConfig
 325              	.LVL16:
 156:MyHardWare/Src/usart.c **** 
 157:MyHardWare/Src/usart.c ****   // й…ҚзҪ® NVIC дёӯж–ӯдјҳе…Ҳзә§
 158:MyHardWare/Src/usart.c ****   NVIC_InitStructure.NVIC_IRQChannel = TIM7_IRQn;
 326              		.loc 1 158 3 view .LVU114
 327              		.loc 1 158 38 is_stmt 0 view .LVU115
 328 003e 3723     		movs	r3, #55
 329 0040 8DF80030 		strb	r3, [sp]
 159:MyHardWare/Src/usart.c ****   NVIC_InitStructure.NVIC_IRQChannelPreemptionPriority = 0;
 330              		.loc 1 159 3 is_stmt 1 view .LVU116
 331              		.loc 1 159 56 is_stmt 0 view .LVU117
 332 0044 8DF80140 		strb	r4, [sp, #1]
 160:MyHardWare/Src/usart.c ****   NVIC_InitStructure.NVIC_IRQChannelSubPriority = 2;
 333              		.loc 1 160 3 is_stmt 1 view .LVU118
 334              		.loc 1 160 49 is_stmt 0 view .LVU119
 335 0048 0223     		movs	r3, #2
 336 004a 8DF80230 		strb	r3, [sp, #2]
 161:MyHardWare/Src/usart.c ****   NVIC_InitStructure.NVIC_IRQChannelCmd = ENABLE;
 337              		.loc 1 161 3 is_stmt 1 view .LVU120
 338              		.loc 1 161 41 is_stmt 0 view .LVU121
 339 004e 0123     		movs	r3, #1
 340 0050 8DF80330 		strb	r3, [sp, #3]
 162:MyHardWare/Src/usart.c ****   NVIC_Init(&NVIC_InitStructure);
 341              		.loc 1 162 3 is_stmt 1 view .LVU122
 342 0054 6846     		mov	r0, sp
 343 0056 FFF7FEFF 		bl	NVIC_Init
 344              	.LVL17:
 163:MyHardWare/Src/usart.c **** }
 345              		.loc 1 163 1 is_stmt 0 view .LVU123
 346 005a 05B0     		add	sp, sp, #20
 347              	.LCFI5:
 348              		.cfi_def_cfa_offset 12
 349              		@ sp needed
 350 005c 30BD     		pop	{r4, r5, pc}
 351              	.L10:
 352 005e 00BF     		.align	2
 353              	.L9:
ARM GAS  /tmp/ccI8WcUc.s 			page 10


 354 0060 00140040 		.word	1073746944
 355              		.cfi_endproc
 356              	.LFE127:
 358              		.section	.text.TIM7_EnableIRQ,"ax",%progbits
 359              		.align	1
 360              		.syntax unified
 361              		.thumb
 362              		.thumb_func
 364              	TIM7_EnableIRQ:
 365              	.LFB128:
 164:MyHardWare/Src/usart.c **** /**
 165:MyHardWare/Src/usart.c ****  * @brief  дҪҝиғҪ TIM7 дёӯж–ӯ
 166:MyHardWare/Src/usart.c ****  *         дҪҝиғҪ TIM7 жӣҙж–°дёӯж–ӯе№¶ејҖе§Ӣи®Ўж—¶
 167:MyHardWare/Src/usart.c ****  */
 168:MyHardWare/Src/usart.c **** static void TIM7_EnableIRQ(void) {
 366              		.loc 1 168 34 is_stmt 1 view -0
 367              		.cfi_startproc
 368              		@ args = 0, pretend = 0, frame = 0
 369              		@ frame_needed = 0, uses_anonymous_args = 0
 370 0000 10B5     		push	{r4, lr}
 371              	.LCFI6:
 372              		.cfi_def_cfa_offset 8
 373              		.cfi_offset 4, -8
 374              		.cfi_offset 14, -4
 169:MyHardWare/Src/usart.c ****   TIM_ITConfig(TIM7, TIM_IT_Update, ENABLE);
 375              		.loc 1 169 3 view .LVU125
 376 0002 054C     		ldr	r4, .L13
 377 0004 0122     		movs	r2, #1
 378 0006 1146     		mov	r1, r2
 379 0008 2046     		mov	r0, r4
 380 000a FFF7FEFF 		bl	TIM_ITConfig
 381              	.LVL18:
 170:MyHardWare/Src/usart.c ****   TIM_Cmd(TIM7, ENABLE);
 382              		.loc 1 170 3 view .LVU126
 383 000e 0121     		movs	r1, #1
 384 0010 2046     		mov	r0, r4
 385 0012 FFF7FEFF 		bl	TIM_Cmd
 386              	.LVL19:
 171:MyHardWare/Src/usart.c **** }
 387              		.loc 1 171 1 is_stmt 0 view .LVU127
 388 0016 10BD     		pop	{r4, pc}
 389              	.L14:
 390              		.align	2
 391              	.L13:
 392 0018 00140040 		.word	1073746944
 393              		.cfi_endproc
 394              	.LFE128:
 396              		.section	.text.TIM7_DisableIRQ,"ax",%progbits
 397              		.align	1
 398              		.syntax unified
 399              		.thumb
 400              		.thumb_func
 402              	TIM7_DisableIRQ:
 403              	.LFB129:
 172:MyHardWare/Src/usart.c **** 
 173:MyHardWare/Src/usart.c **** /**
 174:MyHardWare/Src/usart.c ****  * @brief  зҰҒз”Ё TIM7 дёӯж–ӯ
ARM GAS  /tmp/ccI8WcUc.s 			page 11


 175:MyHardWare/Src/usart.c ****  *         зҰҒз”Ё TIM7 жӣҙж–°дёӯж–ӯе№¶еҒңжӯўи®Ўж—¶
 176:MyHardWare/Src/usart.c ****  */
 177:MyHardWare/Src/usart.c **** static void TIM7_DisableIRQ(void) {
 404              		.loc 1 177 35 is_stmt 1 view -0
 405              		.cfi_startproc
 406              		@ args = 0, pretend = 0, frame = 0
 407              		@ frame_needed = 0, uses_anonymous_args = 0
 408 0000 10B5     		push	{r4, lr}
 409              	.LCFI7:
 410              		.cfi_def_cfa_offset 8
 411              		.cfi_offset 4, -8
 412              		.cfi_offset 14, -4
 178:MyHardWare/Src/usart.c ****   TIM_ITConfig(TIM7, TIM_IT_Update, DISABLE);
 413              		.loc 1 178 3 view .LVU129
 414 0002 054C     		ldr	r4, .L17
 415 0004 0022     		movs	r2, #0
 416 0006 0121     		movs	r1, #1
 417 0008 2046     		mov	r0, r4
 418 000a FFF7FEFF 		bl	TIM_ITConfig
 419              	.LVL20:
 179:MyHardWare/Src/usart.c ****   TIM_Cmd(TIM7, DISABLE);
 420              		.loc 1 179 3 view .LVU130
 421 000e 0021     		movs	r1, #0
 422 0010 2046     		mov	r0, r4
 423 0012 FFF7FEFF 		bl	TIM_Cmd
 424              	.LVL21:
 180:MyHardWare/Src/usart.c **** }
 425              		.loc 1 180 1 is_stmt 0 view .LVU131
 426 0016 10BD     		pop	{r4, pc}
 427              	.L18:
 428              		.align	2
 429              	.L17:
 430 0018 00140040 		.word	1073746944
 431              		.cfi_endproc
 432              	.LFE129:
 434              		.section	.text.USART_StartDMA_TX,"ax",%progbits
 435              		.align	1
 436              		.syntax unified
 437              		.thumb
 438              		.thumb_func
 440              	USART_StartDMA_TX:
 441              	.LFB137:
 181:MyHardWare/Src/usart.c **** 
 182:MyHardWare/Src/usart.c **** /**
 183:MyHardWare/Src/usart.c ****  * @brief  USART1 GPIO еј•и„ҡй…ҚзҪ®
 184:MyHardWare/Src/usart.c ****  *         й…ҚзҪ® PA9 дёә TXпјҢPA10 дёә RXпјҢеӨҚз”ЁжЁЎејҸпјҢжҺЁжҢҪиҫ“еҮәпјҢдёҠжӢүиҫ“е…Ҙ
 185:MyHardWare/Src/usart.c ****  */
 186:MyHardWare/Src/usart.c **** void USART_GPIO_Config(void) {
 187:MyHardWare/Src/usart.c ****   GPIO_InitTypeDef GPIO_InitStructure;
 188:MyHardWare/Src/usart.c **** 
 189:MyHardWare/Src/usart.c ****   // дҪҝиғҪ GPIOA ж—¶й’ҹ
 190:MyHardWare/Src/usart.c ****   RCC_AHB1PeriphClockCmd(USART1_TX_CLK | USART1_RX_CLK, ENABLE);
 191:MyHardWare/Src/usart.c **** 
 192:MyHardWare/Src/usart.c ****   // IO й…ҚзҪ®еҸӮж•°
 193:MyHardWare/Src/usart.c ****   GPIO_InitStructure.GPIO_Mode = GPIO_Mode_AF;     // еӨҚз”ЁжЁЎејҸ
 194:MyHardWare/Src/usart.c ****   GPIO_InitStructure.GPIO_OType = GPIO_OType_PP;   // жҺЁжҢҪиҫ“еҮә
 195:MyHardWare/Src/usart.c ****   GPIO_InitStructure.GPIO_PuPd = GPIO_PuPd_UP;     // дёҠжӢүиҫ“е…Ҙ
ARM GAS  /tmp/ccI8WcUc.s 			page 12


 196:MyHardWare/Src/usart.c ****   GPIO_InitStructure.GPIO_Speed = GPIO_Speed_2MHz; // йҖҹеәҰзӯүзә§ 2MHz
 197:MyHardWare/Src/usart.c **** 
 198:MyHardWare/Src/usart.c ****   // еҲқе§ӢеҢ– TX еј•и„ҡ (PA9)
 199:MyHardWare/Src/usart.c ****   GPIO_InitStructure.GPIO_Pin = USART1_TX_PIN;
 200:MyHardWare/Src/usart.c ****   GPIO_Init(USART1_TX_PORT, &GPIO_InitStructure);
 201:MyHardWare/Src/usart.c **** 
 202:MyHardWare/Src/usart.c ****   // еҲқе§ӢеҢ– RX еј•и„ҡ (PA10)
 203:MyHardWare/Src/usart.c ****   GPIO_InitStructure.GPIO_Pin = USART1_RX_PIN;
 204:MyHardWare/Src/usart.c ****   GPIO_Init(USART1_RX_PORT, &GPIO_InitStructure);
 205:MyHardWare/Src/usart.c **** 
 206:MyHardWare/Src/usart.c ****   // IO еӨҚз”ЁпјҢе°Ҷ PA9/PA10 еӨҚз”ЁеҲ° USART1
 207:MyHardWare/Src/usart.c ****   GPIO_PinAFConfig(USART1_TX_PORT, USART1_TX_PinSource, GPIO_AF_USART1);
 208:MyHardWare/Src/usart.c ****   GPIO_PinAFConfig(USART1_RX_PORT, USART1_RX_PinSource, GPIO_AF_USART1);
 209:MyHardWare/Src/usart.c **** }
 210:MyHardWare/Src/usart.c **** 
 211:MyHardWare/Src/usart.c **** /**
 212:MyHardWare/Src/usart.c ****  * @brief  USART1 дёІеҸЈеҸӮж•°й…ҚзҪ®
 213:MyHardWare/Src/usart.c ****  *         жіўзү№зҺҮ 115200пјҢ8 дҪҚж•°жҚ®дҪҚпјҢ1 дҪҚеҒңжӯўдҪҚпјҢж— ж ЎйӘҢпјҢж— зЎ¬д»¶жөҒжҺ§еҲ¶
 214:MyHardWare/Src/usart.c ****  */
 215:MyHardWare/Src/usart.c **** void Usart_Config(void) {
 216:MyHardWare/Src/usart.c ****   USART_InitTypeDef USART_InitStructure;
 217:MyHardWare/Src/usart.c **** 
 218:MyHardWare/Src/usart.c ****   // дҪҝиғҪ USART1 ж—¶й’ҹ
 219:MyHardWare/Src/usart.c ****   RCC_APB2PeriphClockCmd(RCC_APB2Periph_USART1, ENABLE);
 220:MyHardWare/Src/usart.c **** 
 221:MyHardWare/Src/usart.c ****   // IO еҸЈеҲқе§ӢеҢ–
 222:MyHardWare/Src/usart.c ****   USART_GPIO_Config();
 223:MyHardWare/Src/usart.c **** 
 224:MyHardWare/Src/usart.c ****   // й…ҚзҪ®дёІеҸЈеҗ„йЎ№еҸӮж•°
 225:MyHardWare/Src/usart.c ****   USART_InitStructure.USART_BaudRate = USART1_BaudRate; // жіўзү№зҺҮ 115200
 226:MyHardWare/Src/usart.c ****   USART_InitStructure.USART_WordLength = USART_WordLength_8b; // ж•°жҚ®дҪҚ 8 дҪҚ
 227:MyHardWare/Src/usart.c ****   USART_InitStructure.USART_StopBits = USART_StopBits_1;      // еҒңжӯўдҪҚ 1 дҪҚ
 228:MyHardWare/Src/usart.c ****   USART_InitStructure.USART_Parity = USART_Parity_No;         // ж— ж ЎйӘҢ
 229:MyHardWare/Src/usart.c ****   USART_InitStructure.USART_Mode =
 230:MyHardWare/Src/usart.c ****       USART_Mode_Rx | USART_Mode_Tx; // еҸ‘йҖҒе’ҢжҺҘж”¶жЁЎејҸ
 231:MyHardWare/Src/usart.c ****   USART_InitStructure.USART_HardwareFlowControl =
 232:MyHardWare/Src/usart.c ****       USART_HardwareFlowControl_None; // дёҚдҪҝз”ЁзЎ¬д»¶жөҒжҺ§еҲ¶
 233:MyHardWare/Src/usart.c ****   // й…ҚзҪ® USART1 дҪҝз”Ё DMA
 234:MyHardWare/Src/usart.c ****   USART_DMACmd(USART1, USART_DMAReq_Tx, ENABLE);
 235:MyHardWare/Src/usart.c ****   USART_DMACmd(USART1, USART_DMAReq_Rx, ENABLE);
 236:MyHardWare/Src/usart.c **** 
 237:MyHardWare/Src/usart.c ****   USART_Init(USART1, &USART_InitStructure); // еҲқе§ӢеҢ–дёІеҸЈ 1
 238:MyHardWare/Src/usart.c ****   USART_Cmd(USART1, ENABLE);                // дҪҝиғҪдёІеҸЈ 1
 239:MyHardWare/Src/usart.c **** }
 240:MyHardWare/Src/usart.c **** 
 241:MyHardWare/Src/usart.c **** /**
 242:MyHardWare/Src/usart.c ****  * @brief  еҲқе§ӢеҢ– USART1 еҸҠ TIM7
 243:MyHardWare/Src/usart.c ****  *         йңҖиҰҒеңЁ main еҮҪж•°дёӯи°ғз”ЁжӯӨеҮҪж•°жқҘе®ҢжҲҗ USART1 е’Ң TIM7 зҡ„еҲқе§ӢеҢ–
 244:MyHardWare/Src/usart.c ****  *         еҢ…жӢ¬пјҡDMA еҲқе§ӢеҢ–гҖҒдёІеҸЈй…ҚзҪ®гҖҒTIM7 й…ҚзҪ®гҖҒеҗҜеҠЁ DMA жҺҘж”¶гҖҒдҪҝиғҪ TIM7 дё
 245:MyHardWare/Src/usart.c ****  */
 246:MyHardWare/Src/usart.c **** void USART1_Init(void) {
 247:MyHardWare/Src/usart.c ****   // еҲқе§ӢеҢ–еҸ‘йҖҒе’ҢжҺҘж”¶зҺҜеҪўзј“еҶІеҢә
 248:MyHardWare/Src/usart.c ****   RingBuffer_Init(&tx_queue, dma_tx_buffer, USART_DMA_TX_BUFFER_SIZE);
 249:MyHardWare/Src/usart.c ****   RingBuffer_Init(&rx_queue, dma_rx_buffer, USART_DMA_RX_BUFFER_SIZE);
 250:MyHardWare/Src/usart.c **** 
 251:MyHardWare/Src/usart.c ****   // еҲқе§ӢеҢ– USART1 DMA
 252:MyHardWare/Src/usart.c ****   USART1_DMA_Init();
ARM GAS  /tmp/ccI8WcUc.s 			page 13


 253:MyHardWare/Src/usart.c **** 
 254:MyHardWare/Src/usart.c ****   // й…ҚзҪ® USART1 дёІеҸЈеҸӮж•°е’Ң GPIO
 255:MyHardWare/Src/usart.c ****   Usart_Config();
 256:MyHardWare/Src/usart.c **** 
 257:MyHardWare/Src/usart.c ****   // й…ҚзҪ® TIM7 е®ҡж—¶еҷЁпјҢ100us е®ҡж—¶дёӯж–ӯ
 258:MyHardWare/Src/usart.c ****   TIM7_Config();
 259:MyHardWare/Src/usart.c **** 
 260:MyHardWare/Src/usart.c ****   // еҗҜеҠЁ DMA жҺҘж”¶
 261:MyHardWare/Src/usart.c ****   UART1_DMA_Start_RX();
 262:MyHardWare/Src/usart.c **** 
 263:MyHardWare/Src/usart.c ****   // дҪҝиғҪ TIM7 дёӯж–ӯпјҢејҖе§Ӣе®ҡжңҹжЈҖжҹҘзҺҜеҪўзј“еҶІйҳҹеҲ—
 264:MyHardWare/Src/usart.c ****   // TIM7_EnableIRQ();
 265:MyHardWare/Src/usart.c **** }
 266:MyHardWare/Src/usart.c **** 
 267:MyHardWare/Src/usart.c **** /**
 268:MyHardWare/Src/usart.c ****  * @brief  UART1 еҸ‘йҖҒдёҖдёӘеӯ—иҠӮпјҲиҪ®иҜўж–№ејҸпјү
 269:MyHardWare/Src/usart.c ****  * @param  data: иҰҒеҸ‘йҖҒзҡ„ж•°жҚ®
 270:MyHardWare/Src/usart.c ****  * @retval None
 271:MyHardWare/Src/usart.c ****  */
 272:MyHardWare/Src/usart.c **** void UART1_SendByte(uint8_t data) {
 273:MyHardWare/Src/usart.c ****   /* зӯүеҫ…еҸ‘йҖҒзј“еҶІеҢәдёәз©ә */
 274:MyHardWare/Src/usart.c ****   while (USART_GetFlagStatus(USART1, USART_FLAG_TXE) == RESET)
 275:MyHardWare/Src/usart.c ****     ;
 276:MyHardWare/Src/usart.c **** 
 277:MyHardWare/Src/usart.c ****   /* ејәеҲ¶иҪ¬жҚўдёә 16 дҪҚе№¶еҸ‘йҖҒж•°жҚ®пјҢзЎ®дҝқжӯЈзЎ®зҡ„ж•°жҚ®дҪҚдј иҫ“ */
 278:MyHardWare/Src/usart.c ****   USART_SendData(USART1, (uint16_t)data);
 279:MyHardWare/Src/usart.c **** }
 280:MyHardWare/Src/usart.c **** 
 281:MyHardWare/Src/usart.c **** /**
 282:MyHardWare/Src/usart.c ****  * @brief  йҮҚе®ҡд№ү fputc еҮҪж•°пјҢж”ҜжҢҒ printf жү“еҚ°
 283:MyHardWare/Src/usart.c ****  *         йҖҡиҝҮзҺҜеҪўзј“еҶІеҢә + DMA ж–№ејҸеҸ‘йҖҒеӯ—з¬ҰпјҢж— йңҖ CPU зӯүеҫ…
 284:MyHardWare/Src/usart.c ****  * @param  ch: иҰҒеҸ‘йҖҒзҡ„еӯ—з¬Ұ
 285:MyHardWare/Src/usart.c ****  * @retval иҝ”еӣһеҸ‘йҖҒзҡ„еӯ—з¬Ұ
 286:MyHardWare/Src/usart.c ****  */
 287:MyHardWare/Src/usart.c **** int __io_putchar(int ch) {
 288:MyHardWare/Src/usart.c ****   // е°қиҜ•е°Ҷж•°жҚ®еҶҷе…ҘзҺҜеҪўзј“еҶІеҢә
 289:MyHardWare/Src/usart.c ****   while (RingBuffer_Push(&tx_queue, (uint8_t)ch) == 0) {
 290:MyHardWare/Src/usart.c ****     // зј“еҶІеҢәж»ЎпјҢзӯүеҫ…жңүз©әй—Із©әй—ҙ
 291:MyHardWare/Src/usart.c ****     // RingBuffer_Push дјҡеңЁжңүз©әй—ҙж—¶иҮӘеҠЁеҶҷе…Ҙе№¶иҝ”еӣһ 1
 292:MyHardWare/Src/usart.c ****   }
 293:MyHardWare/Src/usart.c **** 
 294:MyHardWare/Src/usart.c ****   // еҰӮжһң DMA жңӘеңЁе·ҘдҪңпјҢи§ҰеҸ‘ TIM7 дёӯж–ӯжқҘеҗҜеҠЁ DMA дј иҫ“
 295:MyHardWare/Src/usart.c ****   if (!tx_queue.is_dma_enabled && !RingBuffer_IsEmpty(&tx_queue)) {
 296:MyHardWare/Src/usart.c ****     // жүӢеҠЁи§ҰеҸ‘дёҖж¬Ў TIM7 дёӯж–ӯжЈҖжҹҘ
 297:MyHardWare/Src/usart.c ****     TIM7_EnableIRQ();
 298:MyHardWare/Src/usart.c ****   }
 299:MyHardWare/Src/usart.c **** 
 300:MyHardWare/Src/usart.c ****   return (ch);
 301:MyHardWare/Src/usart.c **** }
 302:MyHardWare/Src/usart.c **** 
 303:MyHardWare/Src/usart.c **** /**
 304:MyHardWare/Src/usart.c ****  * @brief  UART1 еҸ‘йҖҒеӨҡдёӘ 16 дҪҚж•°жҚ®пјҲиҪ®иҜўж–№ејҸпјү
 305:MyHardWare/Src/usart.c ****  *         жҜҸдёӘ 16 дҪҚж•°жҚ®е…ҲеҸ‘йҖҒй«ҳеӯ—иҠӮпјҢеҶҚеҸ‘йҖҒдҪҺеӯ—иҠӮ
 306:MyHardWare/Src/usart.c ****  * @param  buffer: 16 дҪҚж•°жҚ®зј“еҶІеҢәжҢҮй’Ҳ
 307:MyHardWare/Src/usart.c ****  * @param  size: ж•°жҚ®дёӘж•°
 308:MyHardWare/Src/usart.c ****  */
 309:MyHardWare/Src/usart.c **** void UART1_SendData(uint16_t *buffer, uint16_t size) {
ARM GAS  /tmp/ccI8WcUc.s 			page 14


 310:MyHardWare/Src/usart.c ****   for (uint16_t i = 0; i < size; i++) {
 311:MyHardWare/Src/usart.c ****     uint16_t data = buffer[i]; // иҺ·еҸ–еҪ“еүҚ 16 дҪҚж•°жҚ®
 312:MyHardWare/Src/usart.c **** 
 313:MyHardWare/Src/usart.c ****     // еҸ‘йҖҒй«ҳеӯ—иҠӮпјҲй«ҳдҪҚеңЁеүҚпјү
 314:MyHardWare/Src/usart.c ****     USART_SendData(USART1, (data >> 8) & 0xFF);
 315:MyHardWare/Src/usart.c ****     while (USART_GetFlagStatus(USART1, USART_FLAG_TXE) == RESET)
 316:MyHardWare/Src/usart.c ****       ; // зӯүеҫ…еҸ‘йҖҒе®ҢжҲҗ
 317:MyHardWare/Src/usart.c **** 
 318:MyHardWare/Src/usart.c ****     // еҸ‘йҖҒдҪҺеӯ—иҠӮ
 319:MyHardWare/Src/usart.c ****     USART_SendData(USART1, data & 0xFF);
 320:MyHardWare/Src/usart.c ****     while (USART_GetFlagStatus(USART1, USART_FLAG_TXE) == RESET)
 321:MyHardWare/Src/usart.c ****       ; // зӯүеҫ…еҸ‘йҖҒе®ҢжҲҗ
 322:MyHardWare/Src/usart.c ****   }
 323:MyHardWare/Src/usart.c **** }
 324:MyHardWare/Src/usart.c **** 
 325:MyHardWare/Src/usart.c **** /**
 326:MyHardWare/Src/usart.c ****  * @brief  еҗҜеҠЁ UART1 DMA жҺҘж”¶
 327:MyHardWare/Src/usart.c ****  *         й…ҚзҪ® DMA2 Stream5 е°Ҷ USART1 DR еҜ„еӯҳеҷЁзҡ„ж•°жҚ®дј иҫ“еҲ° rx_queue зј“еҶІеҢә
 328:MyHardWare/Src/usart.c ****  */
 329:MyHardWare/Src/usart.c **** void UART1_DMA_Start_RX(void) {
 330:MyHardWare/Src/usart.c ****   DMA2_Stream5->M0AR = (uint32_t)rx_queue.buffer;
 331:MyHardWare/Src/usart.c ****   DMA2_Stream5->NDTR = rx_queue.size;
 332:MyHardWare/Src/usart.c ****   DMA_Cmd(DMA2_Stream5, ENABLE);
 333:MyHardWare/Src/usart.c ****   rx_queue.is_dma_enabled = 1;
 334:MyHardWare/Src/usart.c **** }
 335:MyHardWare/Src/usart.c **** 
 336:MyHardWare/Src/usart.c **** /**
 337:MyHardWare/Src/usart.c ****  * @brief  еҗҜеҠЁ USART DMA еҸ‘йҖҒ
 338:MyHardWare/Src/usart.c ****  *         д»Һ tx_queue дёӯиҜ»еҸ–ж•°жҚ®пјҢйҖҡиҝҮ DMA2 Stream7 еҸ‘йҖҒеҲ° USART1
 339:MyHardWare/Src/usart.c ****  *         иҮӘеҠЁи®Ўз®—иҝһз»ӯеҸҜиҜ»ж•°жҚ®й•ҝеәҰпјҢж”ҜжҢҒзҺҜеҪўзј“еҶІеҢәзҡ„еҫӘзҺҜзү№жҖ§
 340:MyHardWare/Src/usart.c ****  */
 341:MyHardWare/Src/usart.c **** static void USART_StartDMA_TX(void) {
 442              		.loc 1 341 37 is_stmt 1 view -0
 443              		.cfi_startproc
 444              		@ args = 0, pretend = 0, frame = 0
 445              		@ frame_needed = 0, uses_anonymous_args = 0
 342:MyHardWare/Src/usart.c ****   // еҰӮжһңйҳҹеҲ—дёәз©әпјҢдёҚеҗҜеҠЁ DMA
 343:MyHardWare/Src/usart.c ****   if (tx_queue.head == tx_queue.tail) {
 446              		.loc 1 343 3 view .LVU133
 447              		.loc 1 343 15 is_stmt 0 view .LVU134
 448 0000 114B     		ldr	r3, .L27
 449 0002 D988     		ldrh	r1, [r3, #6]
 450              		.loc 1 343 32 view .LVU135
 451 0004 1B89     		ldrh	r3, [r3, #8]
 452              		.loc 1 343 6 view .LVU136
 453 0006 9942     		cmp	r1, r3
 454 0008 1CD0     		beq	.L24
 341:MyHardWare/Src/usart.c ****   // еҰӮжһңйҳҹеҲ—дёәз©әпјҢдёҚеҗҜеҠЁ DMA
 455              		.loc 1 341 37 view .LVU137
 456 000a 70B5     		push	{r4, r5, r6, lr}
 457              	.LCFI8:
 458              		.cfi_def_cfa_offset 16
 459              		.cfi_offset 4, -16
 460              		.cfi_offset 5, -12
 461              		.cfi_offset 6, -8
 462              		.cfi_offset 14, -4
 344:MyHardWare/Src/usart.c ****     return;
ARM GAS  /tmp/ccI8WcUc.s 			page 15


 345:MyHardWare/Src/usart.c ****   }
 346:MyHardWare/Src/usart.c **** 
 347:MyHardWare/Src/usart.c ****   uint16_t data_count;
 463              		.loc 1 347 3 is_stmt 1 view .LVU138
 348:MyHardWare/Src/usart.c ****   // и®Ўз®—д»Һ tail еҲ° head зҡ„иҝһз»ӯеҸҜиҜ»ж•°жҚ®й•ҝеәҰ
 349:MyHardWare/Src/usart.c ****   if (tx_queue.head > tx_queue.tail) {
 464              		.loc 1 349 3 view .LVU139
 465              		.loc 1 349 6 is_stmt 0 view .LVU140
 466 000c 15D9     		bls	.L21
 350:MyHardWare/Src/usart.c ****     // жғ…еҶө 1пјҡж•°жҚ®жңӘи·Ёи¶Ҡжң«е°ҫпјҢзӣҙжҺҘдј иҫ“ tail еҲ° head
 351:MyHardWare/Src/usart.c ****     data_count = tx_queue.head - tx_queue.tail;
 467              		.loc 1 351 5 is_stmt 1 view .LVU141
 468              		.loc 1 351 16 is_stmt 0 view .LVU142
 469 000e C91A     		subs	r1, r1, r3
 470 0010 8CB2     		uxth	r4, r1
 471              	.LVL22:
 472              	.L22:
 352:MyHardWare/Src/usart.c ****   } else {
 353:MyHardWare/Src/usart.c ****     // жғ…еҶө 2пјҡж•°жҚ®и·Ёи¶Ҡжң«е°ҫпјҢеҸӘдј иҫ“д»Һ tail еҲ°зј“еҶІеҢәжң«е°ҫзҡ„йғЁеҲҶ
 354:MyHardWare/Src/usart.c ****     // иҝҷжҳҜ DMA иғҪе®үе…Ёи®ҝй—®зҡ„иҝһз»ӯеҶ…еӯҳеҢәеҹҹ
 355:MyHardWare/Src/usart.c ****     data_count = tx_queue.size - tx_queue.tail;
 356:MyHardWare/Src/usart.c ****   }
 357:MyHardWare/Src/usart.c **** 
 358:MyHardWare/Src/usart.c ****   // й…ҚзҪ® DMA жәҗең°еқҖе’Ңж•°жҚ®й•ҝеәҰ
 359:MyHardWare/Src/usart.c ****   DMA2_Stream7->M0AR = (uint32_t)&tx_queue.buffer[tx_queue.tail];
 473              		.loc 1 359 3 is_stmt 1 view .LVU143
 474              		.loc 1 359 43 is_stmt 0 view .LVU144
 475 0012 0D4D     		ldr	r5, .L27
 476 0014 2A68     		ldr	r2, [r5]
 477              		.loc 1 359 34 view .LVU145
 478 0016 1A44     		add	r2, r2, r3
 479              		.loc 1 359 22 view .LVU146
 480 0018 0C4B     		ldr	r3, .L27+4
 481 001a C3F8C420 		str	r2, [r3, #196]
 360:MyHardWare/Src/usart.c ****   DMA_SetCurrDataCounter(DMA2_Stream7, data_count);
 482              		.loc 1 360 3 is_stmt 1 view .LVU147
 483 001e 0C4E     		ldr	r6, .L27+8
 484 0020 2146     		mov	r1, r4
 485 0022 3046     		mov	r0, r6
 486 0024 FFF7FEFF 		bl	DMA_SetCurrDataCounter
 487              	.LVL23:
 361:MyHardWare/Src/usart.c **** 
 362:MyHardWare/Src/usart.c ****   // дҝқеӯҳжң¬ж¬Ў DMA дј иҫ“зҡ„ж•°жҚ®йҮҸпјҢз”ЁдәҺдёӯж–ӯдёӯи®Ўз®—
 363:MyHardWare/Src/usart.c ****   last_dma_tx_count = data_count;
 488              		.loc 1 363 3 view .LVU148
 489              		.loc 1 363 21 is_stmt 0 view .LVU149
 490 0028 0A4B     		ldr	r3, .L27+12
 491 002a 1C80     		strh	r4, [r3]	@ movhi
 364:MyHardWare/Src/usart.c **** 
 365:MyHardWare/Src/usart.c ****   DMA_Cmd(DMA2_Stream7, ENABLE);
 492              		.loc 1 365 3 is_stmt 1 view .LVU150
 493 002c 0121     		movs	r1, #1
 494 002e 3046     		mov	r0, r6
 495 0030 FFF7FEFF 		bl	DMA_Cmd
 496              	.LVL24:
 366:MyHardWare/Src/usart.c ****   tx_queue.is_dma_enabled = 1;
 497              		.loc 1 366 3 view .LVU151
ARM GAS  /tmp/ccI8WcUc.s 			page 16


 498              		.loc 1 366 27 is_stmt 0 view .LVU152
 499 0034 0123     		movs	r3, #1
 500 0036 AB72     		strb	r3, [r5, #10]
 367:MyHardWare/Src/usart.c **** }
 501              		.loc 1 367 1 view .LVU153
 502 0038 70BD     		pop	{r4, r5, r6, pc}
 503              	.LVL25:
 504              	.L21:
 355:MyHardWare/Src/usart.c ****   }
 505              		.loc 1 355 5 is_stmt 1 view .LVU154
 355:MyHardWare/Src/usart.c ****   }
 506              		.loc 1 355 26 is_stmt 0 view .LVU155
 507 003a 034A     		ldr	r2, .L27
 508 003c 9488     		ldrh	r4, [r2, #4]
 355:MyHardWare/Src/usart.c ****   }
 509              		.loc 1 355 16 view .LVU156
 510 003e E41A     		subs	r4, r4, r3
 511 0040 A4B2     		uxth	r4, r4
 512              	.LVL26:
 355:MyHardWare/Src/usart.c ****   }
 513              		.loc 1 355 16 view .LVU157
 514 0042 E6E7     		b	.L22
 515              	.LVL27:
 516              	.L24:
 517              	.LCFI9:
 518              		.cfi_def_cfa_offset 0
 519              		.cfi_restore 4
 520              		.cfi_restore 5
 521              		.cfi_restore 6
 522              		.cfi_restore 14
 355:MyHardWare/Src/usart.c ****   }
 523              		.loc 1 355 16 view .LVU158
 524 0044 7047     		bx	lr
 525              	.L28:
 526 0046 00BF     		.align	2
 527              	.L27:
 528 0048 00000000 		.word	tx_queue
 529 004c 00640240 		.word	1073898496
 530 0050 B8640240 		.word	1073898680
 531 0054 00000000 		.word	last_dma_tx_count
 532              		.cfi_endproc
 533              	.LFE137:
 535              		.section	.text.USART_GPIO_Config,"ax",%progbits
 536              		.align	1
 537              		.global	USART_GPIO_Config
 538              		.syntax unified
 539              		.thumb
 540              		.thumb_func
 542              	USART_GPIO_Config:
 543              	.LFB130:
 186:MyHardWare/Src/usart.c ****   GPIO_InitTypeDef GPIO_InitStructure;
 544              		.loc 1 186 30 is_stmt 1 view -0
 545              		.cfi_startproc
 546              		@ args = 0, pretend = 0, frame = 8
 547              		@ frame_needed = 0, uses_anonymous_args = 0
 548 0000 10B5     		push	{r4, lr}
 549              	.LCFI10:
ARM GAS  /tmp/ccI8WcUc.s 			page 17


 550              		.cfi_def_cfa_offset 8
 551              		.cfi_offset 4, -8
 552              		.cfi_offset 14, -4
 553 0002 82B0     		sub	sp, sp, #8
 554              	.LCFI11:
 555              		.cfi_def_cfa_offset 16
 187:MyHardWare/Src/usart.c **** 
 556              		.loc 1 187 3 view .LVU160
 190:MyHardWare/Src/usart.c **** 
 557              		.loc 1 190 3 view .LVU161
 558 0004 0121     		movs	r1, #1
 559 0006 0846     		mov	r0, r1
 560 0008 FFF7FEFF 		bl	RCC_AHB1PeriphClockCmd
 561              	.LVL28:
 193:MyHardWare/Src/usart.c ****   GPIO_InitStructure.GPIO_OType = GPIO_OType_PP;   // жҺЁжҢҪиҫ“еҮә
 562              		.loc 1 193 3 view .LVU162
 193:MyHardWare/Src/usart.c ****   GPIO_InitStructure.GPIO_OType = GPIO_OType_PP;   // жҺЁжҢҪиҫ“еҮә
 563              		.loc 1 193 32 is_stmt 0 view .LVU163
 564 000c 0223     		movs	r3, #2
 565 000e 8DF80430 		strb	r3, [sp, #4]
 194:MyHardWare/Src/usart.c ****   GPIO_InitStructure.GPIO_PuPd = GPIO_PuPd_UP;     // дёҠжӢүиҫ“е…Ҙ
 566              		.loc 1 194 3 is_stmt 1 view .LVU164
 194:MyHardWare/Src/usart.c ****   GPIO_InitStructure.GPIO_PuPd = GPIO_PuPd_UP;     // дёҠжӢүиҫ“е…Ҙ
 567              		.loc 1 194 33 is_stmt 0 view .LVU165
 568 0012 0023     		movs	r3, #0
 569 0014 8DF80630 		strb	r3, [sp, #6]
 195:MyHardWare/Src/usart.c ****   GPIO_InitStructure.GPIO_Speed = GPIO_Speed_2MHz; // йҖҹеәҰзӯүзә§ 2MHz
 570              		.loc 1 195 3 is_stmt 1 view .LVU166
 195:MyHardWare/Src/usart.c ****   GPIO_InitStructure.GPIO_Speed = GPIO_Speed_2MHz; // йҖҹеәҰзӯүзә§ 2MHz
 571              		.loc 1 195 32 is_stmt 0 view .LVU167
 572 0018 0122     		movs	r2, #1
 573 001a 8DF80720 		strb	r2, [sp, #7]
 196:MyHardWare/Src/usart.c **** 
 574              		.loc 1 196 3 is_stmt 1 view .LVU168
 196:MyHardWare/Src/usart.c **** 
 575              		.loc 1 196 33 is_stmt 0 view .LVU169
 576 001e 8DF80530 		strb	r3, [sp, #5]
 199:MyHardWare/Src/usart.c ****   GPIO_Init(USART1_TX_PORT, &GPIO_InitStructure);
 577              		.loc 1 199 3 is_stmt 1 view .LVU170
 199:MyHardWare/Src/usart.c ****   GPIO_Init(USART1_TX_PORT, &GPIO_InitStructure);
 578              		.loc 1 199 31 is_stmt 0 view .LVU171
 579 0022 4FF40073 		mov	r3, #512
 580 0026 0093     		str	r3, [sp]
 200:MyHardWare/Src/usart.c **** 
 581              		.loc 1 200 3 is_stmt 1 view .LVU172
 582 0028 0B4C     		ldr	r4, .L31
 583 002a 6946     		mov	r1, sp
 584 002c 2046     		mov	r0, r4
 585 002e FFF7FEFF 		bl	GPIO_Init
 586              	.LVL29:
 203:MyHardWare/Src/usart.c ****   GPIO_Init(USART1_RX_PORT, &GPIO_InitStructure);
 587              		.loc 1 203 3 view .LVU173
 203:MyHardWare/Src/usart.c ****   GPIO_Init(USART1_RX_PORT, &GPIO_InitStructure);
 588              		.loc 1 203 31 is_stmt 0 view .LVU174
 589 0032 4FF48063 		mov	r3, #1024
 590 0036 0093     		str	r3, [sp]
 204:MyHardWare/Src/usart.c **** 
ARM GAS  /tmp/ccI8WcUc.s 			page 18


 591              		.loc 1 204 3 is_stmt 1 view .LVU175
 592 0038 6946     		mov	r1, sp
 593 003a 2046     		mov	r0, r4
 594 003c FFF7FEFF 		bl	GPIO_Init
 595              	.LVL30:
 207:MyHardWare/Src/usart.c ****   GPIO_PinAFConfig(USART1_RX_PORT, USART1_RX_PinSource, GPIO_AF_USART1);
 596              		.loc 1 207 3 view .LVU176
 597 0040 0722     		movs	r2, #7
 598 0042 0921     		movs	r1, #9
 599 0044 2046     		mov	r0, r4
 600 0046 FFF7FEFF 		bl	GPIO_PinAFConfig
 601              	.LVL31:
 208:MyHardWare/Src/usart.c **** }
 602              		.loc 1 208 3 view .LVU177
 603 004a 0722     		movs	r2, #7
 604 004c 0A21     		movs	r1, #10
 605 004e 2046     		mov	r0, r4
 606 0050 FFF7FEFF 		bl	GPIO_PinAFConfig
 607              	.LVL32:
 209:MyHardWare/Src/usart.c **** 
 608              		.loc 1 209 1 is_stmt 0 view .LVU178
 609 0054 02B0     		add	sp, sp, #8
 610              	.LCFI12:
 611              		.cfi_def_cfa_offset 8
 612              		@ sp needed
 613 0056 10BD     		pop	{r4, pc}
 614              	.L32:
 615              		.align	2
 616              	.L31:
 617 0058 00000240 		.word	1073872896
 618              		.cfi_endproc
 619              	.LFE130:
 621              		.section	.text.Usart_Config,"ax",%progbits
 622              		.align	1
 623              		.global	Usart_Config
 624              		.syntax unified
 625              		.thumb
 626              		.thumb_func
 628              	Usart_Config:
 629              	.LFB131:
 215:MyHardWare/Src/usart.c ****   USART_InitTypeDef USART_InitStructure;
 630              		.loc 1 215 25 is_stmt 1 view -0
 631              		.cfi_startproc
 632              		@ args = 0, pretend = 0, frame = 16
 633              		@ frame_needed = 0, uses_anonymous_args = 0
 634 0000 10B5     		push	{r4, lr}
 635              	.LCFI13:
 636              		.cfi_def_cfa_offset 8
 637              		.cfi_offset 4, -8
 638              		.cfi_offset 14, -4
 639 0002 84B0     		sub	sp, sp, #16
 640              	.LCFI14:
 641              		.cfi_def_cfa_offset 24
 216:MyHardWare/Src/usart.c **** 
 642              		.loc 1 216 3 view .LVU180
 219:MyHardWare/Src/usart.c **** 
 643              		.loc 1 219 3 view .LVU181
ARM GAS  /tmp/ccI8WcUc.s 			page 19


 644 0004 0121     		movs	r1, #1
 645 0006 1020     		movs	r0, #16
 646 0008 FFF7FEFF 		bl	RCC_APB2PeriphClockCmd
 647              	.LVL33:
 222:MyHardWare/Src/usart.c **** 
 648              		.loc 1 222 3 view .LVU182
 649 000c FFF7FEFF 		bl	USART_GPIO_Config
 650              	.LVL34:
 225:MyHardWare/Src/usart.c ****   USART_InitStructure.USART_WordLength = USART_WordLength_8b; // ж•°жҚ®дҪҚ 8 дҪҚ
 651              		.loc 1 225 3 view .LVU183
 225:MyHardWare/Src/usart.c ****   USART_InitStructure.USART_WordLength = USART_WordLength_8b; // ж•°жҚ®дҪҚ 8 дҪҚ
 652              		.loc 1 225 38 is_stmt 0 view .LVU184
 653 0010 4FF4E133 		mov	r3, #115200
 654 0014 0093     		str	r3, [sp]
 226:MyHardWare/Src/usart.c ****   USART_InitStructure.USART_StopBits = USART_StopBits_1;      // еҒңжӯўдҪҚ 1 дҪҚ
 655              		.loc 1 226 3 is_stmt 1 view .LVU185
 226:MyHardWare/Src/usart.c ****   USART_InitStructure.USART_StopBits = USART_StopBits_1;      // еҒңжӯўдҪҚ 1 дҪҚ
 656              		.loc 1 226 40 is_stmt 0 view .LVU186
 657 0016 0023     		movs	r3, #0
 658 0018 ADF80430 		strh	r3, [sp, #4]	@ movhi
 227:MyHardWare/Src/usart.c ****   USART_InitStructure.USART_Parity = USART_Parity_No;         // ж— ж ЎйӘҢ
 659              		.loc 1 227 3 is_stmt 1 view .LVU187
 227:MyHardWare/Src/usart.c ****   USART_InitStructure.USART_Parity = USART_Parity_No;         // ж— ж ЎйӘҢ
 660              		.loc 1 227 38 is_stmt 0 view .LVU188
 661 001c ADF80630 		strh	r3, [sp, #6]	@ movhi
 228:MyHardWare/Src/usart.c ****   USART_InitStructure.USART_Mode =
 662              		.loc 1 228 3 is_stmt 1 view .LVU189
 228:MyHardWare/Src/usart.c ****   USART_InitStructure.USART_Mode =
 663              		.loc 1 228 36 is_stmt 0 view .LVU190
 664 0020 ADF80830 		strh	r3, [sp, #8]	@ movhi
 229:MyHardWare/Src/usart.c ****       USART_Mode_Rx | USART_Mode_Tx; // еҸ‘йҖҒе’ҢжҺҘж”¶жЁЎејҸ
 665              		.loc 1 229 3 is_stmt 1 view .LVU191
 229:MyHardWare/Src/usart.c ****       USART_Mode_Rx | USART_Mode_Tx; // еҸ‘йҖҒе’ҢжҺҘж”¶жЁЎејҸ
 666              		.loc 1 229 34 is_stmt 0 view .LVU192
 667 0024 0C22     		movs	r2, #12
 668 0026 ADF80A20 		strh	r2, [sp, #10]	@ movhi
 231:MyHardWare/Src/usart.c ****       USART_HardwareFlowControl_None; // дёҚдҪҝз”ЁзЎ¬д»¶жөҒжҺ§еҲ¶
 669              		.loc 1 231 3 is_stmt 1 view .LVU193
 231:MyHardWare/Src/usart.c ****       USART_HardwareFlowControl_None; // дёҚдҪҝз”ЁзЎ¬д»¶жөҒжҺ§еҲ¶
 670              		.loc 1 231 49 is_stmt 0 view .LVU194
 671 002a ADF80C30 		strh	r3, [sp, #12]	@ movhi
 234:MyHardWare/Src/usart.c ****   USART_DMACmd(USART1, USART_DMAReq_Rx, ENABLE);
 672              		.loc 1 234 3 is_stmt 1 view .LVU195
 673 002e 0A4C     		ldr	r4, .L35
 674 0030 0122     		movs	r2, #1
 675 0032 8021     		movs	r1, #128
 676 0034 2046     		mov	r0, r4
 677 0036 FFF7FEFF 		bl	USART_DMACmd
 678              	.LVL35:
 235:MyHardWare/Src/usart.c **** 
 679              		.loc 1 235 3 view .LVU196
 680 003a 0122     		movs	r2, #1
 681 003c 4021     		movs	r1, #64
 682 003e 2046     		mov	r0, r4
 683 0040 FFF7FEFF 		bl	USART_DMACmd
 684              	.LVL36:
 237:MyHardWare/Src/usart.c ****   USART_Cmd(USART1, ENABLE);                // дҪҝиғҪдёІеҸЈ 1
ARM GAS  /tmp/ccI8WcUc.s 			page 20


 685              		.loc 1 237 3 view .LVU197
 686 0044 6946     		mov	r1, sp
 687 0046 2046     		mov	r0, r4
 688 0048 FFF7FEFF 		bl	USART_Init
 689              	.LVL37:
 238:MyHardWare/Src/usart.c **** }
 690              		.loc 1 238 3 view .LVU198
 691 004c 0121     		movs	r1, #1
 692 004e 2046     		mov	r0, r4
 693 0050 FFF7FEFF 		bl	USART_Cmd
 694              	.LVL38:
 239:MyHardWare/Src/usart.c **** 
 695              		.loc 1 239 1 is_stmt 0 view .LVU199
 696 0054 04B0     		add	sp, sp, #16
 697              	.LCFI15:
 698              		.cfi_def_cfa_offset 8
 699              		@ sp needed
 700 0056 10BD     		pop	{r4, pc}
 701              	.L36:
 702              		.align	2
 703              	.L35:
 704 0058 00100140 		.word	1073811456
 705              		.cfi_endproc
 706              	.LFE131:
 708              		.section	.text.UART1_SendByte,"ax",%progbits
 709              		.align	1
 710              		.global	UART1_SendByte
 711              		.syntax unified
 712              		.thumb
 713              		.thumb_func
 715              	UART1_SendByte:
 716              	.LVL39:
 717              	.LFB133:
 272:MyHardWare/Src/usart.c ****   /* зӯүеҫ…еҸ‘йҖҒзј“еҶІеҢәдёәз©ә */
 718              		.loc 1 272 35 is_stmt 1 view -0
 719              		.cfi_startproc
 720              		@ args = 0, pretend = 0, frame = 0
 721              		@ frame_needed = 0, uses_anonymous_args = 0
 272:MyHardWare/Src/usart.c ****   /* зӯүеҫ…еҸ‘йҖҒзј“еҶІеҢәдёәз©ә */
 722              		.loc 1 272 35 is_stmt 0 view .LVU201
 723 0000 10B5     		push	{r4, lr}
 724              	.LCFI16:
 725              		.cfi_def_cfa_offset 8
 726              		.cfi_offset 4, -8
 727              		.cfi_offset 14, -4
 728 0002 0446     		mov	r4, r0
 274:MyHardWare/Src/usart.c ****     ;
 729              		.loc 1 274 3 is_stmt 1 view .LVU202
 730              	.LVL40:
 731              	.L38:
 274:MyHardWare/Src/usart.c ****     ;
 732              		.loc 1 274 54 discriminator 1 view .LVU203
 274:MyHardWare/Src/usart.c ****     ;
 733              		.loc 1 274 10 is_stmt 0 discriminator 1 view .LVU204
 734 0004 8021     		movs	r1, #128
 735 0006 0548     		ldr	r0, .L40
 736 0008 FFF7FEFF 		bl	USART_GetFlagStatus
ARM GAS  /tmp/ccI8WcUc.s 			page 21


 737              	.LVL41:
 274:MyHardWare/Src/usart.c ****     ;
 738              		.loc 1 274 54 discriminator 1 view .LVU205
 739 000c 0028     		cmp	r0, #0
 740 000e F9D0     		beq	.L38
 278:MyHardWare/Src/usart.c **** }
 741              		.loc 1 278 3 is_stmt 1 view .LVU206
 742 0010 2146     		mov	r1, r4
 743 0012 0248     		ldr	r0, .L40
 744 0014 FFF7FEFF 		bl	USART_SendData
 745              	.LVL42:
 279:MyHardWare/Src/usart.c **** 
 746              		.loc 1 279 1 is_stmt 0 view .LVU207
 747 0018 10BD     		pop	{r4, pc}
 748              	.LVL43:
 749              	.L41:
 279:MyHardWare/Src/usart.c **** 
 750              		.loc 1 279 1 view .LVU208
 751 001a 00BF     		.align	2
 752              	.L40:
 753 001c 00100140 		.word	1073811456
 754              		.cfi_endproc
 755              	.LFE133:
 757              		.section	.text.__io_putchar,"ax",%progbits
 758              		.align	1
 759              		.global	__io_putchar
 760              		.syntax unified
 761              		.thumb
 762              		.thumb_func
 764              	__io_putchar:
 765              	.LVL44:
 766              	.LFB134:
 287:MyHardWare/Src/usart.c ****   // е°қиҜ•е°Ҷж•°жҚ®еҶҷе…ҘзҺҜеҪўзј“еҶІеҢә
 767              		.loc 1 287 26 is_stmt 1 view -0
 768              		.cfi_startproc
 769              		@ args = 0, pretend = 0, frame = 0
 770              		@ frame_needed = 0, uses_anonymous_args = 0
 287:MyHardWare/Src/usart.c ****   // е°қиҜ•е°Ҷж•°жҚ®еҶҷе…ҘзҺҜеҪўзј“еҶІеҢә
 771              		.loc 1 287 26 is_stmt 0 view .LVU210
 772 0000 10B5     		push	{r4, lr}
 773              	.LCFI17:
 774              		.cfi_def_cfa_offset 8
 775              		.cfi_offset 4, -8
 776              		.cfi_offset 14, -4
 777 0002 0446     		mov	r4, r0
 289:MyHardWare/Src/usart.c ****     // зј“еҶІеҢәж»ЎпјҢзӯүеҫ…жңүз©әй—Із©әй—ҙ
 778              		.loc 1 289 3 is_stmt 1 view .LVU211
 779              	.LVL45:
 780              	.L43:
 292:MyHardWare/Src/usart.c **** 
 781              		.loc 1 292 3 view .LVU212
 289:MyHardWare/Src/usart.c ****     // зј“еҶІеҢәж»ЎпјҢзӯүеҫ…жңүз©әй—Із©әй—ҙ
 782              		.loc 1 289 50 discriminator 1 view .LVU213
 289:MyHardWare/Src/usart.c ****     // зј“еҶІеҢәж»ЎпјҢзӯүеҫ…жңүз©әй—Із©әй—ҙ
 783              		.loc 1 289 10 is_stmt 0 discriminator 1 view .LVU214
 784 0004 E1B2     		uxtb	r1, r4
 785 0006 0948     		ldr	r0, .L47
ARM GAS  /tmp/ccI8WcUc.s 			page 22


 786 0008 FFF7FEFF 		bl	RingBuffer_Push
 787              	.LVL46:
 289:MyHardWare/Src/usart.c ****     // зј“еҶІеҢәж»ЎпјҢзӯүеҫ…жңүз©әй—Із©әй—ҙ
 788              		.loc 1 289 50 discriminator 1 view .LVU215
 789 000c 0028     		cmp	r0, #0
 790 000e F9D0     		beq	.L43
 295:MyHardWare/Src/usart.c ****     // жүӢеҠЁи§ҰеҸ‘дёҖж¬Ў TIM7 дёӯж–ӯжЈҖжҹҘ
 791              		.loc 1 295 3 is_stmt 1 view .LVU216
 295:MyHardWare/Src/usart.c ****     // жүӢеҠЁи§ҰеҸ‘дёҖж¬Ў TIM7 дёӯж–ӯжЈҖжҹҘ
 792              		.loc 1 295 16 is_stmt 0 view .LVU217
 793 0010 064B     		ldr	r3, .L47
 794 0012 9B7A     		ldrb	r3, [r3, #10]	@ zero_extendqisi2
 295:MyHardWare/Src/usart.c ****     // жүӢеҠЁи§ҰеҸ‘дёҖж¬Ў TIM7 дёӯж–ӯжЈҖжҹҘ
 795              		.loc 1 295 6 view .LVU218
 796 0014 0BB1     		cbz	r3, .L46
 797              	.L44:
 300:MyHardWare/Src/usart.c **** }
 798              		.loc 1 300 3 is_stmt 1 view .LVU219
 301:MyHardWare/Src/usart.c **** 
 799              		.loc 1 301 1 is_stmt 0 view .LVU220
 800 0016 2046     		mov	r0, r4
 801 0018 10BD     		pop	{r4, pc}
 802              	.LVL47:
 803              	.L46:
 295:MyHardWare/Src/usart.c ****     // жүӢеҠЁи§ҰеҸ‘дёҖж¬Ў TIM7 дёӯж–ӯжЈҖжҹҘ
 804              		.loc 1 295 36 discriminator 1 view .LVU221
 805 001a 0448     		ldr	r0, .L47
 806 001c FFF7FEFF 		bl	RingBuffer_IsEmpty
 807              	.LVL48:
 295:MyHardWare/Src/usart.c ****     // жүӢеҠЁи§ҰеҸ‘дёҖж¬Ў TIM7 дёӯж–ӯжЈҖжҹҘ
 808              		.loc 1 295 32 discriminator 1 view .LVU222
 809 0020 0028     		cmp	r0, #0
 810 0022 F8D1     		bne	.L44
 297:MyHardWare/Src/usart.c ****   }
 811              		.loc 1 297 5 is_stmt 1 view .LVU223
 812 0024 FFF7FEFF 		bl	TIM7_EnableIRQ
 813              	.LVL49:
 814 0028 F5E7     		b	.L44
 815              	.L48:
 816 002a 00BF     		.align	2
 817              	.L47:
 818 002c 00000000 		.word	tx_queue
 819              		.cfi_endproc
 820              	.LFE134:
 822              		.section	.text.UART1_SendData,"ax",%progbits
 823              		.align	1
 824              		.global	UART1_SendData
 825              		.syntax unified
 826              		.thumb
 827              		.thumb_func
 829              	UART1_SendData:
 830              	.LVL50:
 831              	.LFB135:
 309:MyHardWare/Src/usart.c ****   for (uint16_t i = 0; i < size; i++) {
 832              		.loc 1 309 54 view -0
 833              		.cfi_startproc
 834              		@ args = 0, pretend = 0, frame = 0
ARM GAS  /tmp/ccI8WcUc.s 			page 23


 835              		@ frame_needed = 0, uses_anonymous_args = 0
 309:MyHardWare/Src/usart.c ****   for (uint16_t i = 0; i < size; i++) {
 836              		.loc 1 309 54 is_stmt 0 view .LVU225
 837 0000 F8B5     		push	{r3, r4, r5, r6, r7, lr}
 838              	.LCFI18:
 839              		.cfi_def_cfa_offset 24
 840              		.cfi_offset 3, -24
 841              		.cfi_offset 4, -20
 842              		.cfi_offset 5, -16
 843              		.cfi_offset 6, -12
 844              		.cfi_offset 7, -8
 845              		.cfi_offset 14, -4
 846 0002 0746     		mov	r7, r0
 847 0004 0E46     		mov	r6, r1
 310:MyHardWare/Src/usart.c ****     uint16_t data = buffer[i]; // иҺ·еҸ–еҪ“еүҚ 16 дҪҚж•°жҚ®
 848              		.loc 1 310 3 is_stmt 1 view .LVU226
 849              	.LBB2:
 310:MyHardWare/Src/usart.c ****     uint16_t data = buffer[i]; // иҺ·еҸ–еҪ“еүҚ 16 дҪҚж•°жҚ®
 850              		.loc 1 310 8 view .LVU227
 851              	.LVL51:
 310:MyHardWare/Src/usart.c ****     uint16_t data = buffer[i]; // иҺ·еҸ–еҪ“еүҚ 16 дҪҚж•°жҚ®
 852              		.loc 1 310 17 is_stmt 0 view .LVU228
 853 0006 0024     		movs	r4, #0
 310:MyHardWare/Src/usart.c ****     uint16_t data = buffer[i]; // иҺ·еҸ–еҪ“еүҚ 16 дҪҚж•°жҚ®
 854              		.loc 1 310 3 view .LVU229
 855 0008 17E0     		b	.L50
 856              	.LVL52:
 857              	.L53:
 858              	.LBB3:
 311:MyHardWare/Src/usart.c **** 
 859              		.loc 1 311 5 is_stmt 1 view .LVU230
 311:MyHardWare/Src/usart.c **** 
 860              		.loc 1 311 14 is_stmt 0 view .LVU231
 861 000a 37F81450 		ldrh	r5, [r7, r4, lsl #1]
 862              	.LVL53:
 314:MyHardWare/Src/usart.c ****     while (USART_GetFlagStatus(USART1, USART_FLAG_TXE) == RESET)
 863              		.loc 1 314 5 is_stmt 1 view .LVU232
 864 000e 290A     		lsrs	r1, r5, #8
 865 0010 0B48     		ldr	r0, .L55
 866 0012 FFF7FEFF 		bl	USART_SendData
 867              	.LVL54:
 315:MyHardWare/Src/usart.c ****       ; // зӯүеҫ…еҸ‘йҖҒе®ҢжҲҗ
 868              		.loc 1 315 5 view .LVU233
 869              	.L51:
 315:MyHardWare/Src/usart.c ****       ; // зӯүеҫ…еҸ‘йҖҒе®ҢжҲҗ
 870              		.loc 1 315 56 discriminator 1 view .LVU234
 315:MyHardWare/Src/usart.c ****       ; // зӯүеҫ…еҸ‘йҖҒе®ҢжҲҗ
 871              		.loc 1 315 12 is_stmt 0 discriminator 1 view .LVU235
 872 0016 8021     		movs	r1, #128
 873 0018 0948     		ldr	r0, .L55
 874 001a FFF7FEFF 		bl	USART_GetFlagStatus
 875              	.LVL55:
 315:MyHardWare/Src/usart.c ****       ; // зӯүеҫ…еҸ‘йҖҒе®ҢжҲҗ
 876              		.loc 1 315 56 discriminator 1 view .LVU236
 877 001e 0028     		cmp	r0, #0
 878 0020 F9D0     		beq	.L51
 319:MyHardWare/Src/usart.c ****     while (USART_GetFlagStatus(USART1, USART_FLAG_TXE) == RESET)
ARM GAS  /tmp/ccI8WcUc.s 			page 24


 879              		.loc 1 319 5 is_stmt 1 view .LVU237
 880 0022 E9B2     		uxtb	r1, r5
 881 0024 0648     		ldr	r0, .L55
 882 0026 FFF7FEFF 		bl	USART_SendData
 883              	.LVL56:
 320:MyHardWare/Src/usart.c ****       ; // зӯүеҫ…еҸ‘йҖҒе®ҢжҲҗ
 884              		.loc 1 320 5 view .LVU238
 885              	.L52:
 320:MyHardWare/Src/usart.c ****       ; // зӯүеҫ…еҸ‘йҖҒе®ҢжҲҗ
 886              		.loc 1 320 56 discriminator 1 view .LVU239
 320:MyHardWare/Src/usart.c ****       ; // зӯүеҫ…еҸ‘йҖҒе®ҢжҲҗ
 887              		.loc 1 320 12 is_stmt 0 discriminator 1 view .LVU240
 888 002a 8021     		movs	r1, #128
 889 002c 0448     		ldr	r0, .L55
 890 002e FFF7FEFF 		bl	USART_GetFlagStatus
 891              	.LVL57:
 320:MyHardWare/Src/usart.c ****       ; // зӯүеҫ…еҸ‘йҖҒе®ҢжҲҗ
 892              		.loc 1 320 56 discriminator 1 view .LVU241
 893 0032 0028     		cmp	r0, #0
 894 0034 F9D0     		beq	.L52
 895              	.LBE3:
 310:MyHardWare/Src/usart.c ****     uint16_t data = buffer[i]; // иҺ·еҸ–еҪ“еүҚ 16 дҪҚж•°жҚ®
 896              		.loc 1 310 35 is_stmt 1 discriminator 2 view .LVU242
 897 0036 0134     		adds	r4, r4, #1
 898              	.LVL58:
 310:MyHardWare/Src/usart.c ****     uint16_t data = buffer[i]; // иҺ·еҸ–еҪ“еүҚ 16 дҪҚж•°жҚ®
 899              		.loc 1 310 35 is_stmt 0 discriminator 2 view .LVU243
 900 0038 A4B2     		uxth	r4, r4
 901              	.LVL59:
 902              	.L50:
 310:MyHardWare/Src/usart.c ****     uint16_t data = buffer[i]; // иҺ·еҸ–еҪ“еүҚ 16 дҪҚж•°жҚ®
 903              		.loc 1 310 26 is_stmt 1 discriminator 1 view .LVU244
 904 003a B442     		cmp	r4, r6
 905 003c E5D3     		bcc	.L53
 906              	.LBE2:
 323:MyHardWare/Src/usart.c **** 
 907              		.loc 1 323 1 is_stmt 0 view .LVU245
 908 003e F8BD     		pop	{r3, r4, r5, r6, r7, pc}
 909              	.LVL60:
 910              	.L56:
 323:MyHardWare/Src/usart.c **** 
 911              		.loc 1 323 1 view .LVU246
 912              		.align	2
 913              	.L55:
 914 0040 00100140 		.word	1073811456
 915              		.cfi_endproc
 916              	.LFE135:
 918              		.section	.text.UART1_DMA_Start_RX,"ax",%progbits
 919              		.align	1
 920              		.global	UART1_DMA_Start_RX
 921              		.syntax unified
 922              		.thumb
 923              		.thumb_func
 925              	UART1_DMA_Start_RX:
 926              	.LFB136:
 329:MyHardWare/Src/usart.c ****   DMA2_Stream5->M0AR = (uint32_t)rx_queue.buffer;
 927              		.loc 1 329 31 is_stmt 1 view -0
ARM GAS  /tmp/ccI8WcUc.s 			page 25


 928              		.cfi_startproc
 929              		@ args = 0, pretend = 0, frame = 0
 930              		@ frame_needed = 0, uses_anonymous_args = 0
 931 0000 10B5     		push	{r4, lr}
 932              	.LCFI19:
 933              		.cfi_def_cfa_offset 8
 934              		.cfi_offset 4, -8
 935              		.cfi_offset 14, -4
 330:MyHardWare/Src/usart.c ****   DMA2_Stream5->NDTR = rx_queue.size;
 936              		.loc 1 330 3 view .LVU248
 330:MyHardWare/Src/usart.c ****   DMA2_Stream5->NDTR = rx_queue.size;
 937              		.loc 1 330 42 is_stmt 0 view .LVU249
 938 0002 074C     		ldr	r4, .L59
 939 0004 2268     		ldr	r2, [r4]
 330:MyHardWare/Src/usart.c ****   DMA2_Stream5->NDTR = rx_queue.size;
 940              		.loc 1 330 22 view .LVU250
 941 0006 074B     		ldr	r3, .L59+4
 942 0008 C3F89420 		str	r2, [r3, #148]
 331:MyHardWare/Src/usart.c ****   DMA_Cmd(DMA2_Stream5, ENABLE);
 943              		.loc 1 331 3 is_stmt 1 view .LVU251
 331:MyHardWare/Src/usart.c ****   DMA_Cmd(DMA2_Stream5, ENABLE);
 944              		.loc 1 331 32 is_stmt 0 view .LVU252
 945 000c A288     		ldrh	r2, [r4, #4]
 331:MyHardWare/Src/usart.c ****   DMA_Cmd(DMA2_Stream5, ENABLE);
 946              		.loc 1 331 22 view .LVU253
 947 000e C3F88C20 		str	r2, [r3, #140]
 332:MyHardWare/Src/usart.c ****   rx_queue.is_dma_enabled = 1;
 948              		.loc 1 332 3 is_stmt 1 view .LVU254
 949 0012 0121     		movs	r1, #1
 950 0014 0448     		ldr	r0, .L59+8
 951 0016 FFF7FEFF 		bl	DMA_Cmd
 952              	.LVL61:
 333:MyHardWare/Src/usart.c **** }
 953              		.loc 1 333 3 view .LVU255
 333:MyHardWare/Src/usart.c **** }
 954              		.loc 1 333 27 is_stmt 0 view .LVU256
 955 001a 0123     		movs	r3, #1
 956 001c A372     		strb	r3, [r4, #10]
 334:MyHardWare/Src/usart.c **** 
 957              		.loc 1 334 1 view .LVU257
 958 001e 10BD     		pop	{r4, pc}
 959              	.L60:
 960              		.align	2
 961              	.L59:
 962 0020 00000000 		.word	rx_queue
 963 0024 00640240 		.word	1073898496
 964 0028 88640240 		.word	1073898632
 965              		.cfi_endproc
 966              	.LFE136:
 968              		.section	.text.USART1_Init,"ax",%progbits
 969              		.align	1
 970              		.global	USART1_Init
 971              		.syntax unified
 972              		.thumb
 973              		.thumb_func
 975              	USART1_Init:
 976              	.LFB132:
ARM GAS  /tmp/ccI8WcUc.s 			page 26


 246:MyHardWare/Src/usart.c ****   // еҲқе§ӢеҢ–еҸ‘йҖҒе’ҢжҺҘж”¶зҺҜеҪўзј“еҶІеҢә
 977              		.loc 1 246 24 is_stmt 1 view -0
 978              		.cfi_startproc
 979              		@ args = 0, pretend = 0, frame = 0
 980              		@ frame_needed = 0, uses_anonymous_args = 0
 981 0000 08B5     		push	{r3, lr}
 982              	.LCFI20:
 983              		.cfi_def_cfa_offset 8
 984              		.cfi_offset 3, -8
 985              		.cfi_offset 14, -4
 248:MyHardWare/Src/usart.c ****   RingBuffer_Init(&rx_queue, dma_rx_buffer, USART_DMA_RX_BUFFER_SIZE);
 986              		.loc 1 248 3 view .LVU259
 987 0002 4FF48072 		mov	r2, #256
 988 0006 0949     		ldr	r1, .L63
 989 0008 0948     		ldr	r0, .L63+4
 990 000a FFF7FEFF 		bl	RingBuffer_Init
 991              	.LVL62:
 249:MyHardWare/Src/usart.c **** 
 992              		.loc 1 249 3 view .LVU260
 993 000e 4FF48072 		mov	r2, #256
 994 0012 0849     		ldr	r1, .L63+8
 995 0014 0848     		ldr	r0, .L63+12
 996 0016 FFF7FEFF 		bl	RingBuffer_Init
 997              	.LVL63:
 252:MyHardWare/Src/usart.c **** 
 998              		.loc 1 252 3 view .LVU261
 999 001a FFF7FEFF 		bl	USART1_DMA_Init
 1000              	.LVL64:
 255:MyHardWare/Src/usart.c **** 
 1001              		.loc 1 255 3 view .LVU262
 1002 001e FFF7FEFF 		bl	Usart_Config
 1003              	.LVL65:
 258:MyHardWare/Src/usart.c **** 
 1004              		.loc 1 258 3 view .LVU263
 1005 0022 FFF7FEFF 		bl	TIM7_Config
 1006              	.LVL66:
 261:MyHardWare/Src/usart.c **** 
 1007              		.loc 1 261 3 view .LVU264
 1008 0026 FFF7FEFF 		bl	UART1_DMA_Start_RX
 1009              	.LVL67:
 265:MyHardWare/Src/usart.c **** 
 1010              		.loc 1 265 1 is_stmt 0 view .LVU265
 1011 002a 08BD     		pop	{r3, pc}
 1012              	.L64:
 1013              		.align	2
 1014              	.L63:
 1015 002c 00000000 		.word	dma_tx_buffer
 1016 0030 00000000 		.word	tx_queue
 1017 0034 00000000 		.word	dma_rx_buffer
 1018 0038 00000000 		.word	rx_queue
 1019              		.cfi_endproc
 1020              	.LFE132:
 1022              		.section	.text.TIM7_IRQHandler,"ax",%progbits
 1023              		.align	1
 1024              		.global	TIM7_IRQHandler
 1025              		.syntax unified
 1026              		.thumb
ARM GAS  /tmp/ccI8WcUc.s 			page 27


 1027              		.thumb_func
 1029              	TIM7_IRQHandler:
 1030              	.LFB138:
 368:MyHardWare/Src/usart.c **** /**
 369:MyHardWare/Src/usart.c ****  * @brief  TIM7 дёӯж–ӯжңҚеҠЎеҮҪж•°пјҢжҜҸ 100us иҝӣе…ҘдёҖж¬Ў
 370:MyHardWare/Src/usart.c ****  *         жЈҖжҹҘеҸ‘йҖҒзҺҜеҪўзј“еҶІйҳҹеҲ—жҳҜеҗҰжңүж•°жҚ®пјҢжңүж•°жҚ®еҲҷеҗҜеҠЁ DMA дј иҫ“е№¶е…ій—ӯдё
 371:MyHardWare/Src/usart.c ****  *         йҒҝе…Қйў‘з№Ғиҝӣе…Ҙдёӯж–ӯпјҢйҷҚдҪҺ CPU иҙҹиҪҪ
 372:MyHardWare/Src/usart.c ****  */
 373:MyHardWare/Src/usart.c **** void TIM7_IRQHandler(void) {
 1031              		.loc 1 373 28 is_stmt 1 view -0
 1032              		.cfi_startproc
 1033              		@ args = 0, pretend = 0, frame = 0
 1034              		@ frame_needed = 0, uses_anonymous_args = 0
 1035 0000 08B5     		push	{r3, lr}
 1036              	.LCFI21:
 1037              		.cfi_def_cfa_offset 8
 1038              		.cfi_offset 3, -8
 1039              		.cfi_offset 14, -4
 374:MyHardWare/Src/usart.c ****   if (TIM_GetITStatus(TIM7, TIM_IT_Update) != RESET) {
 1040              		.loc 1 374 3 view .LVU267
 1041              		.loc 1 374 7 is_stmt 0 view .LVU268
 1042 0002 0121     		movs	r1, #1
 1043 0004 0948     		ldr	r0, .L69
 1044 0006 FFF7FEFF 		bl	TIM_GetITStatus
 1045              	.LVL68:
 1046              		.loc 1 374 6 discriminator 1 view .LVU269
 1047 000a 00B9     		cbnz	r0, .L68
 1048              	.L65:
 375:MyHardWare/Src/usart.c ****     TIM_ClearITPendingBit(TIM7, TIM_IT_Update);
 376:MyHardWare/Src/usart.c **** 
 377:MyHardWare/Src/usart.c ****     // жЈҖжҹҘеҸ‘йҖҒйҳҹеҲ—жҳҜеҗҰжңүж•°жҚ®
 378:MyHardWare/Src/usart.c ****     if (!RingBuffer_IsEmpty(&tx_queue)) {
 379:MyHardWare/Src/usart.c ****       // жңүж•°жҚ®пјҢеҗҜеҠЁ DMA дј иҫ“
 380:MyHardWare/Src/usart.c ****       USART_StartDMA_TX();
 381:MyHardWare/Src/usart.c **** 
 382:MyHardWare/Src/usart.c ****       // е…ій—ӯ TIM7 дёӯж–ӯпјҢйҒҝе…Қйў‘з№Ғиҝӣе…Ҙдёӯж–ӯ
 383:MyHardWare/Src/usart.c ****       // DMA дј иҫ“е®ҢжҲҗеҗҺдјҡж №жҚ®йҳҹеҲ—зҠ¶жҖҒеҶіе®ҡжҳҜеҗҰйҮҚж–°дҪҝиғҪдёӯж–ӯ
 384:MyHardWare/Src/usart.c ****       TIM7_DisableIRQ();
 385:MyHardWare/Src/usart.c ****     }
 386:MyHardWare/Src/usart.c ****   }
 387:MyHardWare/Src/usart.c **** }
 1049              		.loc 1 387 1 view .LVU270
 1050 000c 08BD     		pop	{r3, pc}
 1051              	.L68:
 375:MyHardWare/Src/usart.c ****     TIM_ClearITPendingBit(TIM7, TIM_IT_Update);
 1052              		.loc 1 375 5 is_stmt 1 view .LVU271
 1053 000e 0121     		movs	r1, #1
 1054 0010 0648     		ldr	r0, .L69
 1055 0012 FFF7FEFF 		bl	TIM_ClearITPendingBit
 1056              	.LVL69:
 378:MyHardWare/Src/usart.c ****       // жңүж•°жҚ®пјҢеҗҜеҠЁ DMA дј иҫ“
 1057              		.loc 1 378 5 view .LVU272
 378:MyHardWare/Src/usart.c ****       // жңүж•°жҚ®пјҢеҗҜеҠЁ DMA дј иҫ“
 1058              		.loc 1 378 10 is_stmt 0 view .LVU273
 1059 0016 0648     		ldr	r0, .L69+4
 1060 0018 FFF7FEFF 		bl	RingBuffer_IsEmpty
 1061              	.LVL70:
ARM GAS  /tmp/ccI8WcUc.s 			page 28


 378:MyHardWare/Src/usart.c ****       // жңүж•°жҚ®пјҢеҗҜеҠЁ DMA дј иҫ“
 1062              		.loc 1 378 8 discriminator 1 view .LVU274
 1063 001c 0028     		cmp	r0, #0
 1064 001e F5D1     		bne	.L65
 380:MyHardWare/Src/usart.c **** 
 1065              		.loc 1 380 7 is_stmt 1 view .LVU275
 1066 0020 FFF7FEFF 		bl	USART_StartDMA_TX
 1067              	.LVL71:
 384:MyHardWare/Src/usart.c ****     }
 1068              		.loc 1 384 7 view .LVU276
 1069 0024 FFF7FEFF 		bl	TIM7_DisableIRQ
 1070              	.LVL72:
 1071              		.loc 1 387 1 is_stmt 0 view .LVU277
 1072 0028 F0E7     		b	.L65
 1073              	.L70:
 1074 002a 00BF     		.align	2
 1075              	.L69:
 1076 002c 00140040 		.word	1073746944
 1077 0030 00000000 		.word	tx_queue
 1078              		.cfi_endproc
 1079              	.LFE138:
 1081              		.section	.text.DMA2_Stream2_IRQHandler,"ax",%progbits
 1082              		.align	1
 1083              		.global	DMA2_Stream2_IRQHandler
 1084              		.syntax unified
 1085              		.thumb
 1086              		.thumb_func
 1088              	DMA2_Stream2_IRQHandler:
 1089              	.LFB139:
 388:MyHardWare/Src/usart.c **** 
 389:MyHardWare/Src/usart.c **** /**
 390:MyHardWare/Src/usart.c ****  * @brief  DMA2 Stream5 дёӯж–ӯжңҚеҠЎеҮҪж•°пјҲUSART1 RXпјү
 391:MyHardWare/Src/usart.c ****  *         еӨ„зҗҶ DMA жҺҘж”¶е®ҢжҲҗдёӯж–ӯпјҢйҮҚж–°еҗҜеҠЁ DMA жҺҘж”¶
 392:MyHardWare/Src/usart.c ****  */
 393:MyHardWare/Src/usart.c **** void DMA2_Stream2_IRQHandler(void) {
 1090              		.loc 1 393 36 is_stmt 1 view -0
 1091              		.cfi_startproc
 1092              		@ args = 0, pretend = 0, frame = 0
 1093              		@ frame_needed = 0, uses_anonymous_args = 0
 1094 0000 08B5     		push	{r3, lr}
 1095              	.LCFI22:
 1096              		.cfi_def_cfa_offset 8
 1097              		.cfi_offset 3, -8
 1098              		.cfi_offset 14, -4
 394:MyHardWare/Src/usart.c ****   if (DMA_GetITStatus(DMA2_Stream2, DMA_IT_TCIF2) != RESET) {
 1099              		.loc 1 394 3 view .LVU279
 1100              		.loc 1 394 7 is_stmt 0 view .LVU280
 1101 0002 0A49     		ldr	r1, .L75
 1102 0004 0A48     		ldr	r0, .L75+4
 1103 0006 FFF7FEFF 		bl	DMA_GetITStatus
 1104              	.LVL73:
 1105              		.loc 1 394 6 discriminator 1 view .LVU281
 1106 000a 00B9     		cbnz	r0, .L74
 1107              	.L71:
 395:MyHardWare/Src/usart.c ****     DMA_ClearITPendingBit(DMA2_Stream2, DMA_IT_TCIF2);
 396:MyHardWare/Src/usart.c ****     dma_rx_transfer_complete = 1;
 397:MyHardWare/Src/usart.c ****     DMA_Cmd(DMA2_Stream5, DISABLE);
ARM GAS  /tmp/ccI8WcUc.s 			page 29


 398:MyHardWare/Src/usart.c ****     UART1_DMA_Start_RX();
 399:MyHardWare/Src/usart.c ****   }
 400:MyHardWare/Src/usart.c **** }
 1108              		.loc 1 400 1 view .LVU282
 1109 000c 08BD     		pop	{r3, pc}
 1110              	.L74:
 395:MyHardWare/Src/usart.c ****     DMA_ClearITPendingBit(DMA2_Stream2, DMA_IT_TCIF2);
 1111              		.loc 1 395 5 is_stmt 1 view .LVU283
 1112 000e 0749     		ldr	r1, .L75
 1113 0010 0748     		ldr	r0, .L75+4
 1114 0012 FFF7FEFF 		bl	DMA_ClearITPendingBit
 1115              	.LVL74:
 396:MyHardWare/Src/usart.c ****     DMA_Cmd(DMA2_Stream5, DISABLE);
 1116              		.loc 1 396 5 view .LVU284
 396:MyHardWare/Src/usart.c ****     DMA_Cmd(DMA2_Stream5, DISABLE);
 1117              		.loc 1 396 30 is_stmt 0 view .LVU285
 1118 0016 074B     		ldr	r3, .L75+8
 1119 0018 0122     		movs	r2, #1
 1120 001a 1A70     		strb	r2, [r3]
 397:MyHardWare/Src/usart.c ****     UART1_DMA_Start_RX();
 1121              		.loc 1 397 5 is_stmt 1 view .LVU286
 1122 001c 0021     		movs	r1, #0
 1123 001e 0648     		ldr	r0, .L75+12
 1124 0020 FFF7FEFF 		bl	DMA_Cmd
 1125              	.LVL75:
 398:MyHardWare/Src/usart.c ****   }
 1126              		.loc 1 398 5 view .LVU287
 1127 0024 FFF7FEFF 		bl	UART1_DMA_Start_RX
 1128              	.LVL76:
 1129              		.loc 1 400 1 is_stmt 0 view .LVU288
 1130 0028 F0E7     		b	.L71
 1131              	.L76:
 1132 002a 00BF     		.align	2
 1133              	.L75:
 1134 002c 00802010 		.word	270565376
 1135 0030 40640240 		.word	1073898560
 1136 0034 00000000 		.word	dma_rx_transfer_complete
 1137 0038 88640240 		.word	1073898632
 1138              		.cfi_endproc
 1139              	.LFE139:
 1141              		.section	.text.DMA2_Stream7_IRQHandler,"ax",%progbits
 1142              		.align	1
 1143              		.global	DMA2_Stream7_IRQHandler
 1144              		.syntax unified
 1145              		.thumb
 1146              		.thumb_func
 1148              	DMA2_Stream7_IRQHandler:
 1149              	.LFB140:
 401:MyHardWare/Src/usart.c **** 
 402:MyHardWare/Src/usart.c **** /**
 403:MyHardWare/Src/usart.c ****  * @brief  DMA2 Stream7 дёӯж–ӯжңҚеҠЎеҮҪж•°пјҲUSART1 TXпјү
 404:MyHardWare/Src/usart.c ****  *         еӨ„зҗҶ DMA еҸ‘йҖҒе®ҢжҲҗдёӯж–ӯпјҢжӣҙж–°иҜ»жҢҮй’ҲпјҢж №жҚ®йҳҹеҲ—зҠ¶жҖҒеҶіе®ҡжҳҜеҗҰз»§з»ӯеҸ
 405:MyHardWare/Src/usart.c ****  */
 406:MyHardWare/Src/usart.c **** 
 407:MyHardWare/Src/usart.c **** void DMA2_Stream7_IRQHandler(void) {
 1150              		.loc 1 407 36 is_stmt 1 view -0
 1151              		.cfi_startproc
ARM GAS  /tmp/ccI8WcUc.s 			page 30


 1152              		@ args = 0, pretend = 0, frame = 0
 1153              		@ frame_needed = 0, uses_anonymous_args = 0
 1154 0000 10B5     		push	{r4, lr}
 1155              	.LCFI23:
 1156              		.cfi_def_cfa_offset 8
 1157              		.cfi_offset 4, -8
 1158              		.cfi_offset 14, -4
 408:MyHardWare/Src/usart.c ****   if (DMA_GetITStatus(DMA2_Stream7, DMA_IT_TCIF7) != RESET) {
 1159              		.loc 1 408 3 view .LVU290
 1160              		.loc 1 408 7 is_stmt 0 view .LVU291
 1161 0002 1549     		ldr	r1, .L82
 1162 0004 1548     		ldr	r0, .L82+4
 1163 0006 FFF7FEFF 		bl	DMA_GetITStatus
 1164              	.LVL77:
 1165              		.loc 1 408 6 discriminator 1 view .LVU292
 1166 000a 00B9     		cbnz	r0, .L81
 1167              	.L77:
 409:MyHardWare/Src/usart.c ****     DMA_ClearITPendingBit(DMA2_Stream7, DMA_IT_TCIF7);
 410:MyHardWare/Src/usart.c ****     dma_tx_transfer_complete = 1;
 411:MyHardWare/Src/usart.c ****     DMA_Cmd(DMA2_Stream7, DISABLE);
 412:MyHardWare/Src/usart.c **** 
 413:MyHardWare/Src/usart.c ****     // и®Ўз®—е·Ідј иҫ“зҡ„ж•°жҚ®й•ҝеәҰ = еҲқе§ӢеҖј - еү©дҪҷеҖј
 414:MyHardWare/Src/usart.c ****     // DMA дј иҫ“е®ҢжҲҗеҗҺ NDTR еә”иҜҘдёә 0пјҢдҪҶдёәдәҶдҝқйҷ©иө·и§ҒиҝҳжҳҜи®Ўз®—дёҖдёӢ
 415:MyHardWare/Src/usart.c ****     uint16_t transferred = last_dma_tx_count - DMA2_Stream7->NDTR;
 416:MyHardWare/Src/usart.c **** 
 417:MyHardWare/Src/usart.c ****     // и·іиҝҮе·ІиҜ»еҸ–зҡ„ж•°жҚ®пјҲз§»еҠЁ tail жҢҮй’Ҳпјү
 418:MyHardWare/Src/usart.c ****     // жіЁж„ҸпјҡиҝҷйҮҢеҸӘжҳҜз§»еҠЁйҖ»иҫ‘жҢҮй’ҲпјҢдёҚдјҡжё…йҷӨж•°жҚ®
 419:MyHardWare/Src/usart.c ****     RingBuffer_SkipRead(&tx_queue, transferred);
 420:MyHardWare/Src/usart.c ****     tx_queue.is_dma_enabled = 0;
 421:MyHardWare/Src/usart.c **** 
 422:MyHardWare/Src/usart.c ****     // е…ій”®пјҡйҮҚж–°жЈҖжҹҘйҳҹеҲ—зҠ¶жҖҒпјҢиҖҢдёҚжҳҜз®ҖеҚ•ең°еҲӨж–ӯжҳҜеҗҰдёәз©ә
 423:MyHardWare/Src/usart.c ****     // еӣ дёәеңЁ DMA дј иҫ“жңҹй—ҙпјҢprintf еҸҜиғҪеҸҲеҶҷе…ҘдәҶж–°ж•°жҚ®
 424:MyHardWare/Src/usart.c ****     if (!RingBuffer_IsEmpty(&tx_queue)) {
 425:MyHardWare/Src/usart.c ****       // йҳҹеҲ—иҝҳжңүж•°жҚ®пјҢз«ӢеҚіеҗҜеҠЁдёӢдёҖж®ө DMA дј иҫ“
 426:MyHardWare/Src/usart.c ****       // иҝҷдјҡиҮӘеҠЁеӨ„зҗҶд»ҘдёӢжғ…еҶөпјҡ
 427:MyHardWare/Src/usart.c ****       // 1. д№ӢеүҚжҳҜеҲҶж®өдј иҫ“зҡ„з¬¬дәҢж®өпјҲtail е·Іеӣһз»•еҲ° 0пјү
 428:MyHardWare/Src/usart.c ****       // 2. DMA дј иҫ“жңҹй—ҙ printf ж–°еҶҷе…Ҙзҡ„ж•°жҚ®
 429:MyHardWare/Src/usart.c ****       USART_StartDMA_TX();
 430:MyHardWare/Src/usart.c ****     } else {
 431:MyHardWare/Src/usart.c ****       // йҳҹеҲ—е·Із©әпјҢйҮҚж–°дҪҝиғҪ TIM7 дёӯж–ӯпјҢзӯүеҫ…дёӢдёҖж¬Ўж•°жҚ®еҶҷе…Ҙ
 432:MyHardWare/Src/usart.c ****       TIM7_EnableIRQ();
 433:MyHardWare/Src/usart.c ****     }
 434:MyHardWare/Src/usart.c ****   }
 435:MyHardWare/Src/usart.c **** }
 1168              		.loc 1 435 1 view .LVU293
 1169 000c 10BD     		pop	{r4, pc}
 1170              	.L81:
 1171              	.LBB4:
 409:MyHardWare/Src/usart.c ****     DMA_ClearITPendingBit(DMA2_Stream7, DMA_IT_TCIF7);
 1172              		.loc 1 409 5 is_stmt 1 view .LVU294
 1173 000e 134C     		ldr	r4, .L82+4
 1174 0010 1149     		ldr	r1, .L82
 1175 0012 2046     		mov	r0, r4
 1176 0014 FFF7FEFF 		bl	DMA_ClearITPendingBit
 1177              	.LVL78:
 410:MyHardWare/Src/usart.c ****     DMA_Cmd(DMA2_Stream7, DISABLE);
 1178              		.loc 1 410 5 view .LVU295
ARM GAS  /tmp/ccI8WcUc.s 			page 31


 410:MyHardWare/Src/usart.c ****     DMA_Cmd(DMA2_Stream7, DISABLE);
 1179              		.loc 1 410 30 is_stmt 0 view .LVU296
 1180 0018 114B     		ldr	r3, .L82+8
 1181 001a 0122     		movs	r2, #1
 1182 001c 1A70     		strb	r2, [r3]
 411:MyHardWare/Src/usart.c **** 
 1183              		.loc 1 411 5 is_stmt 1 view .LVU297
 1184 001e 0021     		movs	r1, #0
 1185 0020 2046     		mov	r0, r4
 1186 0022 FFF7FEFF 		bl	DMA_Cmd
 1187              	.LVL79:
 415:MyHardWare/Src/usart.c **** 
 1188              		.loc 1 415 5 view .LVU298
 415:MyHardWare/Src/usart.c **** 
 1189              		.loc 1 415 46 is_stmt 0 view .LVU299
 1190 0026 0F4B     		ldr	r3, .L82+12
 1191 0028 1988     		ldrh	r1, [r3]
 415:MyHardWare/Src/usart.c **** 
 1192              		.loc 1 415 60 view .LVU300
 1193 002a 0F4B     		ldr	r3, .L82+16
 1194 002c D3F8BC30 		ldr	r3, [r3, #188]
 415:MyHardWare/Src/usart.c **** 
 1195              		.loc 1 415 46 view .LVU301
 1196 0030 9BB2     		uxth	r3, r3
 415:MyHardWare/Src/usart.c **** 
 1197              		.loc 1 415 14 view .LVU302
 1198 0032 C91A     		subs	r1, r1, r3
 1199              	.LVL80:
 419:MyHardWare/Src/usart.c ****     tx_queue.is_dma_enabled = 0;
 1200              		.loc 1 419 5 is_stmt 1 view .LVU303
 1201 0034 0D4C     		ldr	r4, .L82+20
 1202 0036 89B2     		uxth	r1, r1
 419:MyHardWare/Src/usart.c ****     tx_queue.is_dma_enabled = 0;
 1203              		.loc 1 419 5 is_stmt 0 view .LVU304
 1204 0038 2046     		mov	r0, r4
 1205 003a FFF7FEFF 		bl	RingBuffer_SkipRead
 1206              	.LVL81:
 420:MyHardWare/Src/usart.c **** 
 1207              		.loc 1 420 5 is_stmt 1 view .LVU305
 420:MyHardWare/Src/usart.c **** 
 1208              		.loc 1 420 29 is_stmt 0 view .LVU306
 1209 003e 0023     		movs	r3, #0
 1210 0040 A372     		strb	r3, [r4, #10]
 424:MyHardWare/Src/usart.c ****       // йҳҹеҲ—иҝҳжңүж•°жҚ®пјҢз«ӢеҚіеҗҜеҠЁдёӢдёҖж®ө DMA дј иҫ“
 1211              		.loc 1 424 5 is_stmt 1 view .LVU307
 424:MyHardWare/Src/usart.c ****       // йҳҹеҲ—иҝҳжңүж•°жҚ®пјҢз«ӢеҚіеҗҜеҠЁдёӢдёҖж®ө DMA дј иҫ“
 1212              		.loc 1 424 10 is_stmt 0 view .LVU308
 1213 0042 2046     		mov	r0, r4
 1214 0044 FFF7FEFF 		bl	RingBuffer_IsEmpty
 1215              	.LVL82:
 424:MyHardWare/Src/usart.c ****       // йҳҹеҲ—иҝҳжңүж•°жҚ®пјҢз«ӢеҚіеҗҜеҠЁдёӢдёҖж®ө DMA дј иҫ“
 1216              		.loc 1 424 8 discriminator 1 view .LVU309
 1217 0048 10B9     		cbnz	r0, .L79
 429:MyHardWare/Src/usart.c ****     } else {
 1218              		.loc 1 429 7 is_stmt 1 view .LVU310
 1219 004a FFF7FEFF 		bl	USART_StartDMA_TX
 1220              	.LVL83:
ARM GAS  /tmp/ccI8WcUc.s 			page 32


 1221 004e DDE7     		b	.L77
 1222              	.L79:
 432:MyHardWare/Src/usart.c ****     }
 1223              		.loc 1 432 7 view .LVU311
 1224 0050 FFF7FEFF 		bl	TIM7_EnableIRQ
 1225              	.LVL84:
 1226              	.LBE4:
 1227              		.loc 1 435 1 is_stmt 0 view .LVU312
 1228 0054 DAE7     		b	.L77
 1229              	.L83:
 1230 0056 00BF     		.align	2
 1231              	.L82:
 1232 0058 00800028 		.word	671121408
 1233 005c B8640240 		.word	1073898680
 1234 0060 00000000 		.word	dma_tx_transfer_complete
 1235 0064 00000000 		.word	last_dma_tx_count
 1236 0068 00640240 		.word	1073898496
 1237 006c 00000000 		.word	tx_queue
 1238              		.cfi_endproc
 1239              	.LFE140:
 1241              		.section	.text.UART1_ReadAvailable_DMA,"ax",%progbits
 1242              		.align	1
 1243              		.global	UART1_ReadAvailable_DMA
 1244              		.syntax unified
 1245              		.thumb
 1246              		.thumb_func
 1248              	UART1_ReadAvailable_DMA:
 1249              	.LFB141:
 436:MyHardWare/Src/usart.c **** /**
 437:MyHardWare/Src/usart.c ****  * @brief  иҺ·еҸ– UART1 еҸҜиҜ»еҸ–зҡ„ж•°жҚ®й•ҝеәҰпјҲDMA жҺҘж”¶жЁЎејҸпјү
 438:MyHardWare/Src/usart.c ****  * @retval зҺҜеҪўзј“еҶІеҢәдёӯеҸҜз”Ёзҡ„ж•°жҚ®еӯ—иҠӮж•°
 439:MyHardWare/Src/usart.c ****  */
 440:MyHardWare/Src/usart.c **** uint16_t UART1_ReadAvailable_DMA(void) {
 1250              		.loc 1 440 40 is_stmt 1 view -0
 1251              		.cfi_startproc
 1252              		@ args = 0, pretend = 0, frame = 0
 1253              		@ frame_needed = 0, uses_anonymous_args = 0
 1254 0000 08B5     		push	{r3, lr}
 1255              	.LCFI24:
 1256              		.cfi_def_cfa_offset 8
 1257              		.cfi_offset 3, -8
 1258              		.cfi_offset 14, -4
 441:MyHardWare/Src/usart.c ****   return RingBuffer_Available(&rx_queue);
 1259              		.loc 1 441 3 view .LVU314
 1260              		.loc 1 441 10 is_stmt 0 view .LVU315
 1261 0002 0248     		ldr	r0, .L86
 1262 0004 FFF7FEFF 		bl	RingBuffer_Available
 1263              	.LVL85:
 442:MyHardWare/Src/usart.c **** }
 1264              		.loc 1 442 1 view .LVU316
 1265 0008 08BD     		pop	{r3, pc}
 1266              	.L87:
 1267 000a 00BF     		.align	2
 1268              	.L86:
 1269 000c 00000000 		.word	rx_queue
 1270              		.cfi_endproc
 1271              	.LFE141:
ARM GAS  /tmp/ccI8WcUc.s 			page 33


 1273              		.section	.bss.last_dma_tx_count,"aw",%nobits
 1274              		.align	1
 1277              	last_dma_tx_count:
 1278 0000 0000     		.space	2
 1279              		.global	dma_rx_transfer_complete
 1280              		.section	.bss.dma_rx_transfer_complete,"aw",%nobits
 1283              	dma_rx_transfer_complete:
 1284 0000 00       		.space	1
 1285              		.global	dma_tx_transfer_complete
 1286              		.section	.bss.dma_tx_transfer_complete,"aw",%nobits
 1289              	dma_tx_transfer_complete:
 1290 0000 00       		.space	1
 1291              		.global	rx_queue
 1292              		.section	.bss.rx_queue,"aw",%nobits
 1293              		.align	2
 1296              	rx_queue:
 1297 0000 00000000 		.space	12
 1297      00000000 
 1297      00000000 
 1298              		.global	tx_queue
 1299              		.section	.bss.tx_queue,"aw",%nobits
 1300              		.align	2
 1303              	tx_queue:
 1304 0000 00000000 		.space	12
 1304      00000000 
 1304      00000000 
 1305              		.section	.bss.dma_rx_buffer,"aw",%nobits
 1306              		.align	2
 1309              	dma_rx_buffer:
 1310 0000 00000000 		.space	256
 1310      00000000 
 1310      00000000 
 1310      00000000 
 1310      00000000 
 1311              		.section	.bss.dma_tx_buffer,"aw",%nobits
 1312              		.align	2
 1315              	dma_tx_buffer:
 1316 0000 00000000 		.space	256
 1316      00000000 
 1316      00000000 
 1316      00000000 
 1316      00000000 
 1317              		.text
 1318              	.Letext0:
 1319              		.file 2 "/usr/lib/gcc/arm-none-eabi/13.2.1/include/stdint.h"
 1320              		.file 3 "MyHardWare/Inc/ring_buffer.h"
 1321              		.file 4 "CMSIS/stm32f4xx.h"
 1322              		.file 5 "Lib/StdPeriphs/inc/stm32f4xx_dma.h"
 1323              		.file 6 "Lib/StdPeriphs/inc/stm32f4xx_gpio.h"
 1324              		.file 7 "Lib/StdPeriphs/inc/stm32f4xx_tim.h"
 1325              		.file 8 "Lib/StdPeriphs/inc/stm32f4xx_usart.h"
 1326              		.file 9 "Lib/StdPeriphs/inc/misc.h"
 1327              		.file 10 "MyHardWare/Inc/usart.h"
 1328              		.file 11 "Lib/StdPeriphs/inc/stm32f4xx_rcc.h"
ARM GAS  /tmp/ccI8WcUc.s 			page 34

